

Microchip MPLAB XC8 Assembler V2.32 build 20210201212658 
                                                                                               Sun Jul 25 18:25:08 2021

Microchip MPLAB XC8 C Compiler v2.32 (Free license) build 20210201212658 Og1 
     1                           	processor	16F887
     2                           	pagewidth 120
     3                           	opt	flic
     4                           	psect	strings,global,class=STRING,delta=2,noexec
     5                           	psect	cinit,global,class=CODE,merge=1,delta=2
     6                           	psect	bssBANK0,global,class=BANK0,space=1,delta=1,noexec
     7                           	psect	bssBANK1,global,class=BANK1,space=1,delta=1,noexec
     8                           	psect	clrtext,global,class=CODE,delta=2
     9                           	psect	cstackBANK1,global,class=BANK1,space=1,delta=1,noexec
    10                           	psect	cstackCOMMON,global,class=COMMON,space=1,delta=1,noexec
    11                           	psect	cstackBANK0,global,class=BANK0,space=1,delta=1,noexec
    12                           	psect	maintext,global,class=CODE,split=1,delta=2
    13                           	psect	text1,local,class=CODE,merge=1,delta=2
    14                           	psect	text2,local,class=CODE,merge=1,delta=2
    15                           	psect	text3,local,class=CODE,merge=1,delta=2
    16                           	psect	text4,local,class=CODE,merge=1,delta=2
    17                           	psect	text5,local,class=CODE,merge=1,delta=2
    18                           	psect	text6,local,class=CODE,merge=1,delta=2,group=1
    19                           	psect	text7,local,class=CODE,merge=1,delta=2,group=1
    20                           	psect	text8,local,class=CODE,merge=1,delta=2,group=1
    21                           	psect	text9,local,class=CODE,merge=1,delta=2,group=1
    22                           	psect	text10,local,class=CODE,merge=1,delta=2,group=1
    23                           	psect	text11,local,class=CODE,merge=1,delta=2,group=1
    24                           	psect	text12,local,class=CODE,merge=1,delta=2,group=1
    25                           	psect	text13,local,class=CODE,merge=1,delta=2,group=1
    26                           	psect	text14,local,class=CODE,merge=1,delta=2
    27                           	psect	text15,local,class=CODE,merge=1,delta=2
    28                           	psect	text16,local,class=CODE,merge=1,delta=2
    29                           	psect	text17,local,class=CODE,merge=1,delta=2
    30                           	psect	text18,local,class=CODE,merge=1,delta=2
    31                           	psect	intentry,global,class=CODE,delta=2
    32                           	psect	text19,local,class=CODE,merge=1,delta=2
    33                           	psect	config,global,abs,ovrld,class=CONFIG,space=4,delta=2,noexec
    34                           	dabs	1,0x7E,2
    35  0000                     
    36                           ; Version 2.20
    37                           ; Generated 12/02/2020 GMT
    38                           ; 
    39                           ; Copyright © 2020, Microchip Technology Inc. and its subsidiaries ("Microchip")
    40                           ; All rights reserved.
    41                           ; 
    42                           ; This software is developed by Microchip Technology Inc. and its subsidiaries ("Microch
      +                          ip").
    43                           ; 
    44                           ; Redistribution and use in source and binary forms, with or without modification, are
    45                           ; permitted provided that the following conditions are met:
    46                           ; 
    47                           ;     1. Redistributions of source code must retain the above copyright notice, this lis
      +                          t of
    48                           ;        conditions and the following disclaimer.
    49                           ; 
    50                           ;     2. Redistributions in binary form must reproduce the above copyright notice, this 
      +                          list
    51                           ;        of conditions and the following disclaimer in the documentation and/or other
    52                           ;        materials provided with the distribution.
    53                           ; 
    54                           ;     3. Microchip's name may not be used to endorse or promote products derived from th
      +                          is
    55                           ;        software without specific prior written permission.
    56                           ; 
    57                           ; THIS SOFTWARE IS PROVIDED BY MICROCHIP "AS IS" AND ANY EXPRESS OR IMPLIED WARRANTIES,
    58                           ; INCLUDING, BUT NOT LIMITED TO, THE IMPLIED WARRANTIES OF MERCHANTABILITY AND FITNESS F
      +                          OR
    59                           ; PURPOSE ARE DISCLAIMED.  IN NO EVENT SHALL MICROCHIP BE LIABLE FOR ANY DIRECT, INDIREC
      +                          T,
    60                           ; INCIDENTAL, SPECIAL, EXEMPLARY, OR CONSEQUENTIAL DAMAGES (INCLUDING BUT NOT LIMITED TO
    61                           ; PROCUREMENT OF SUBSTITUTE GOODS OR SERVICES; LOSS OF USE, DATA OR PROFITS; OR BUSINESS
    62                           ; INTERRUPTION) HOWSOEVER CAUSED AND ON ANY THEORY OF LIABILITY, WHETHER IN CONTRACT, ST
      +                          RICT
    63                           ; LIABILITY, OR TORT (INCLUDING NEGLIGENCE OR OTHERWISE) ARISING IN ANY WAY OUT OF THE U
      +                          SE OF
    64                           ; THIS SOFTWARE, EVEN IF ADVISED OF THE POSSIBILITY OF SUCH DAMAGE.
    65                           ; 
    66                           ; 
    67                           ; Code-generator required, PIC16F887 Definitions
    68                           ; 
    69                           ; SFR Addresses
    70  0000                     	;# 
    71  0001                     	;# 
    72  0002                     	;# 
    73  0003                     	;# 
    74  0004                     	;# 
    75  0005                     	;# 
    76  0006                     	;# 
    77  0007                     	;# 
    78  0008                     	;# 
    79  0009                     	;# 
    80  000A                     	;# 
    81  000B                     	;# 
    82  000C                     	;# 
    83  000D                     	;# 
    84  000E                     	;# 
    85  000E                     	;# 
    86  000F                     	;# 
    87  0010                     	;# 
    88  0011                     	;# 
    89  0012                     	;# 
    90  0013                     	;# 
    91  0014                     	;# 
    92  0015                     	;# 
    93  0015                     	;# 
    94  0016                     	;# 
    95  0017                     	;# 
    96  0018                     	;# 
    97  0019                     	;# 
    98  001A                     	;# 
    99  001B                     	;# 
   100  001B                     	;# 
   101  001C                     	;# 
   102  001D                     	;# 
   103  001E                     	;# 
   104  001F                     	;# 
   105  0081                     	;# 
   106  0085                     	;# 
   107  0086                     	;# 
   108  0087                     	;# 
   109  0088                     	;# 
   110  0089                     	;# 
   111  008C                     	;# 
   112  008D                     	;# 
   113  008E                     	;# 
   114  008F                     	;# 
   115  0090                     	;# 
   116  0091                     	;# 
   117  0092                     	;# 
   118  0093                     	;# 
   119  0093                     	;# 
   120  0093                     	;# 
   121  0094                     	;# 
   122  0095                     	;# 
   123  0096                     	;# 
   124  0097                     	;# 
   125  0098                     	;# 
   126  0099                     	;# 
   127  009A                     	;# 
   128  009B                     	;# 
   129  009C                     	;# 
   130  009D                     	;# 
   131  009E                     	;# 
   132  009F                     	;# 
   133  0105                     	;# 
   134  0107                     	;# 
   135  0108                     	;# 
   136  0109                     	;# 
   137  010C                     	;# 
   138  010C                     	;# 
   139  010D                     	;# 
   140  010E                     	;# 
   141  010F                     	;# 
   142  0185                     	;# 
   143  0187                     	;# 
   144  0188                     	;# 
   145  0189                     	;# 
   146  018C                     	;# 
   147  018D                     	;# 
   148  0000                     	;# 
   149  0001                     	;# 
   150  0002                     	;# 
   151  0003                     	;# 
   152  0004                     	;# 
   153  0005                     	;# 
   154  0006                     	;# 
   155  0007                     	;# 
   156  0008                     	;# 
   157  0009                     	;# 
   158  000A                     	;# 
   159  000B                     	;# 
   160  000C                     	;# 
   161  000D                     	;# 
   162  000E                     	;# 
   163  000E                     	;# 
   164  000F                     	;# 
   165  0010                     	;# 
   166  0011                     	;# 
   167  0012                     	;# 
   168  0013                     	;# 
   169  0014                     	;# 
   170  0015                     	;# 
   171  0015                     	;# 
   172  0016                     	;# 
   173  0017                     	;# 
   174  0018                     	;# 
   175  0019                     	;# 
   176  001A                     	;# 
   177  001B                     	;# 
   178  001B                     	;# 
   179  001C                     	;# 
   180  001D                     	;# 
   181  001E                     	;# 
   182  001F                     	;# 
   183  0081                     	;# 
   184  0085                     	;# 
   185  0086                     	;# 
   186  0087                     	;# 
   187  0088                     	;# 
   188  0089                     	;# 
   189  008C                     	;# 
   190  008D                     	;# 
   191  008E                     	;# 
   192  008F                     	;# 
   193  0090                     	;# 
   194  0091                     	;# 
   195  0092                     	;# 
   196  0093                     	;# 
   197  0093                     	;# 
   198  0093                     	;# 
   199  0094                     	;# 
   200  0095                     	;# 
   201  0096                     	;# 
   202  0097                     	;# 
   203  0098                     	;# 
   204  0099                     	;# 
   205  009A                     	;# 
   206  009B                     	;# 
   207  009C                     	;# 
   208  009D                     	;# 
   209  009E                     	;# 
   210  009F                     	;# 
   211  0105                     	;# 
   212  0107                     	;# 
   213  0108                     	;# 
   214  0109                     	;# 
   215  010C                     	;# 
   216  010C                     	;# 
   217  010D                     	;# 
   218  010E                     	;# 
   219  010F                     	;# 
   220  0185                     	;# 
   221  0187                     	;# 
   222  0188                     	;# 
   223  0189                     	;# 
   224  018C                     	;# 
   225  018D                     	;# 
   226  0000                     	;# 
   227  0001                     	;# 
   228  0002                     	;# 
   229  0003                     	;# 
   230  0004                     	;# 
   231  0005                     	;# 
   232  0006                     	;# 
   233  0007                     	;# 
   234  0008                     	;# 
   235  0009                     	;# 
   236  000A                     	;# 
   237  000B                     	;# 
   238  000C                     	;# 
   239  000D                     	;# 
   240  000E                     	;# 
   241  000E                     	;# 
   242  000F                     	;# 
   243  0010                     	;# 
   244  0011                     	;# 
   245  0012                     	;# 
   246  0013                     	;# 
   247  0014                     	;# 
   248  0015                     	;# 
   249  0015                     	;# 
   250  0016                     	;# 
   251  0017                     	;# 
   252  0018                     	;# 
   253  0019                     	;# 
   254  001A                     	;# 
   255  001B                     	;# 
   256  001B                     	;# 
   257  001C                     	;# 
   258  001D                     	;# 
   259  001E                     	;# 
   260  001F                     	;# 
   261  0081                     	;# 
   262  0085                     	;# 
   263  0086                     	;# 
   264  0087                     	;# 
   265  0088                     	;# 
   266  0089                     	;# 
   267  008C                     	;# 
   268  008D                     	;# 
   269  008E                     	;# 
   270  008F                     	;# 
   271  0090                     	;# 
   272  0091                     	;# 
   273  0092                     	;# 
   274  0093                     	;# 
   275  0093                     	;# 
   276  0093                     	;# 
   277  0094                     	;# 
   278  0095                     	;# 
   279  0096                     	;# 
   280  0097                     	;# 
   281  0098                     	;# 
   282  0099                     	;# 
   283  009A                     	;# 
   284  009B                     	;# 
   285  009C                     	;# 
   286  009D                     	;# 
   287  009E                     	;# 
   288  009F                     	;# 
   289  0105                     	;# 
   290  0107                     	;# 
   291  0108                     	;# 
   292  0109                     	;# 
   293  010C                     	;# 
   294  010C                     	;# 
   295  010D                     	;# 
   296  010E                     	;# 
   297  010F                     	;# 
   298  0185                     	;# 
   299  0187                     	;# 
   300  0188                     	;# 
   301  0189                     	;# 
   302  018C                     	;# 
   303  018D                     	;# 
   304  0019                     _TXREG	set	25
   305  0018                     _RCSTAbits	set	24
   306  001E                     _ADRESH	set	30
   307  0009                     _PORTE	set	9
   308  0008                     _PORTD	set	8
   309  0007                     _PORTC	set	7
   310  0006                     _PORTB	set	6
   311  0005                     _PORTA	set	5
   312  001F                     _ADCON0bits	set	31
   313  001A                     _RCREG	set	26
   314  0049                     _RE1	set	73
   315  0048                     _RE0	set	72
   316  0066                     _ADIF	set	102
   317  00F8                     _ADON	set	248
   318  005E                     _PEIE	set	94
   319  005F                     _GIE	set	95
   320  0065                     _RCIF	set	101
   321  00F9                     _GO	set	249
   322  0099                     _SPBRG	set	153
   323  009A                     _SPBRGH	set	154
   324  0098                     _TXSTAbits	set	152
   325  009E                     _ADRESL	set	158
   326  0089                     _TRISE	set	137
   327  0088                     _TRISD	set	136
   328  0087                     _TRISC	set	135
   329  0086                     _TRISB	set	134
   330  0085                     _TRISA	set	133
   331  0466                     _ADIE	set	1126
   332  0189                     _ANSELH	set	393
   333  0188                     _ANSEL	set	392
   334  0C3B                     _BRG16	set	3131
   335                           
   336                           	psect	strings
   337  0800                     __pstrings:
   338  0800                     stringtab:
   339  0800                     __stringtab:
   340  0800                     stringcode:	
   341                           ;	String table - string pointers are 1 byte each
   342                           
   343  0800                     stringdir:
   344  0800  3008               	movlw	high stringdir
   345  0801  008A               	movwf	10
   346  0802  0804               	movf	4,w
   347  0803  0A84               	incf	4,f
   348  0804  0782               	addwf	2,f
   349  0805                     __stringbase:
   350  0805  3400               	retlw	0
   351  0806                     __end_of__stringtab:
   352  0806                     STR_1:
   353  0806  3420               	retlw	32	;' '
   354  0807  3420               	retlw	32	;' '
   355  0808  3456               	retlw	86	;'V'
   356  0809  3431               	retlw	49	;'1'
   357  080A  3420               	retlw	32	;' '
   358  080B  3420               	retlw	32	;' '
   359  080C  3420               	retlw	32	;' '
   360  080D  3420               	retlw	32	;' '
   361  080E  3456               	retlw	86	;'V'
   362  080F  3432               	retlw	50	;'2'
   363  0810  3420               	retlw	32	;' '
   364  0811  3420               	retlw	32	;' '
   365  0812  3420               	retlw	32	;' '
   366  0813  3420               	retlw	32	;' '
   367  0814  3456               	retlw	86	;'V'
   368  0815  3433               	retlw	51	;'3'
   369  0816  3420               	retlw	32	;' '
   370  0817  3400               	retlw	0
   371  0818                     STR_4:
   372  0818  3456               	retlw	86	;'V'
   373  0819  346F               	retlw	111	;'o'
   374  081A  346C               	retlw	108	;'l'
   375  081B  3474               	retlw	116	;'t'
   376  081C  3461               	retlw	97	;'a'
   377  081D  3467               	retlw	103	;'g'
   378  081E  3465               	retlw	101	;'e'
   379  081F  3420               	retlw	32	;' '
   380  0820  3431               	retlw	49	;'1'
   381  0821  3420               	retlw	32	;' '
   382  0822  343D               	retlw	61	;'='
   383  0823  3420               	retlw	32	;' '
   384  0824  3400               	retlw	0
   385  0825                     STR_9:
   386  0825  3456               	retlw	86	;'V'
   387  0826  346F               	retlw	111	;'o'
   388  0827  346C               	retlw	108	;'l'
   389  0828  3474               	retlw	116	;'t'
   390  0829  3461               	retlw	97	;'a'
   391  082A  3467               	retlw	103	;'g'
   392  082B  3465               	retlw	101	;'e'
   393  082C  3420               	retlw	32	;' '
   394  082D  3432               	retlw	50	;'2'
   395  082E  3420               	retlw	32	;' '
   396  082F  343D               	retlw	61	;'='
   397  0830  3420               	retlw	32	;' '
   398  0831  3400               	retlw	0
   399  0832                     STR_11:
   400  0832  3420               	retlw	32	;' '
   401  0833  3456               	retlw	86	;'V'
   402  0834  340D               	retlw	13
   403  0835  340D               	retlw	13
   404  0836  3400               	retlw	0
   405  0837                     STR_6:
   406  0837  3420               	retlw	32	;' '
   407  0838  3456               	retlw	86	;'V'
   408  0839  340D               	retlw	13
   409  083A  3400               	retlw	0
   410  083B                     STR_3:
   411  083B  3456               	retlw	86	;'V'
   412  083C  3420               	retlw	32	;' '
   413  083D  3400               	retlw	0
   414  083E                     STR_2:
   415  083E  342E               	retlw	46	;'.'
   416  083F  3400               	retlw	0
   417  0816                     
   418                           	psect	cinit
   419  000F                     start_initialization:	
   420                           ; #config settings
   421                           
   422  000F                     __initialization:
   423                           
   424                           ; Clear objects allocated to BANK0
   425  000F  1283               	bcf	3,5	;RP0=0, select bank0
   426  0010  1303               	bcf	3,6	;RP1=0, select bank0
   427  0011  01ED               	clrf	__pbssBANK0& (0+127)
   428  0012  01EE               	clrf	(__pbssBANK0+1)& (0+127)
   429  0013  01EF               	clrf	(__pbssBANK0+2)& (0+127)
   430                           
   431                           ; Clear objects allocated to BANK1
   432  0014  1383               	bcf	3,7	;select IRP bank0
   433  0015  30A0               	movlw	low __pbssBANK1
   434  0016  0084               	movwf	4
   435  0017  30B7               	movlw	low (__pbssBANK1+23)
   436  0018  120A  118A  27F6  120A  118A  	fcall	clear_ram0
   437  001D                     end_of_initialization:	
   438                           ;End of C runtime variable initialization code
   439                           
   440  001D                     __end_of__initialization:
   441  001D  0183               	clrf	3
   442  001E  120A  118A  2B82   	ljmp	_main	;jump to C main() function
   443                           
   444                           	psect	bssBANK0
   445  006D                     __pbssBANK0:
   446  006D                     _d1:
   447  006D                     	ds	1
   448  006E                     _c1:
   449  006E                     	ds	1
   450  006F                     _m1:
   451  006F                     	ds	1
   452                           
   453                           	psect	bssBANK1
   454  00A0                     __pbssBANK1:
   455  00A0                     _v2_compare:
   456  00A0                     	ds	2
   457  00A2                     _v2:
   458  00A2                     	ds	2
   459  00A4                     _v1_compare:
   460  00A4                     	ds	2
   461  00A6                     _v1:
   462  00A6                     	ds	2
   463  00A8                     _counter_compare:
   464  00A8                     	ds	1
   465  00A9                     _counter:
   466  00A9                     	ds	1
   467  00AA                     _read_an2:
   468  00AA                     	ds	2
   469  00AC                     _read_an1:
   470  00AC                     	ds	2
   471  00AE                     _uc:
   472  00AE                     	ds	1
   473  00AF                     _dc:
   474  00AF                     	ds	1
   475  00B0                     _cc:
   476  00B0                     	ds	1
   477  00B1                     _mc:
   478  00B1                     	ds	1
   479  00B2                     _u2:
   480  00B2                     	ds	1
   481  00B3                     _d2:
   482  00B3                     	ds	1
   483  00B4                     _c2:
   484  00B4                     	ds	1
   485  00B5                     _m2:
   486  00B5                     	ds	1
   487  00B6                     _u1:
   488  00B6                     	ds	1
   489                           
   490                           	psect	clrtext
   491  07F6                     clear_ram0:	
   492                           ;	Called with FSR containing the base address, and
   493                           ;	W with the last address+1
   494                           
   495  07F6  0064               	clrwdt	;clear the watchdog before getting into this loop
   496  07F7                     clrloop0:
   497  07F7  0180               	clrf	0	;clear RAM location pointed to by FSR
   498  07F8  0A84               	incf	4,f	;increment pointer
   499  07F9  0604               	xorwf	4,w	;XOR with final address
   500  07FA  1903               	btfsc	3,2	;have we reached the end yet?
   501  07FB  3400               	retlw	0	;all done for this memory range, return
   502  07FC  0604               	xorwf	4,w	;XOR again to restore value
   503  07FD  2FF7               	goto	clrloop0	;do the next byte
   504                           
   505                           	psect	cstackBANK1
   506  00B7                     __pcstackBANK1:
   507  00B7                     ??_main:
   508                           
   509                           ; 1 bytes @ 0x0
   510  00B7                     	ds	6
   511                           
   512                           	psect	cstackCOMMON
   513  0070                     __pcstackCOMMON:
   514  0070                     ?_setup:
   515  0070                     ?_Lcd_Write_String:	
   516                           ; 1 bytes @ 0x0
   517                           
   518  0070                     ?_Lcd_Cmd:	
   519                           ; 1 bytes @ 0x0
   520                           
   521  0070                     ?_Lcd_Write_Char:	
   522                           ; 1 bytes @ 0x0
   523                           
   524  0070                     ?_UART_Write:	
   525                           ; 1 bytes @ 0x0
   526                           
   527  0070                     ?_UART_Write_Char:	
   528                           ; 1 bytes @ 0x0
   529                           
   530  0070                     ?_Lcd_Init:	
   531                           ; 1 bytes @ 0x0
   532                           
   533  0070                     ?_UART_Init:	
   534                           ; 1 bytes @ 0x0
   535                           
   536  0070                     ?_main:	
   537                           ; 1 bytes @ 0x0
   538                           
   539  0070                     ?_isr:	
   540                           ; 1 bytes @ 0x0
   541                           
   542  0070                     ?_readAnalog:	
   543                           ; 1 bytes @ 0x0
   544                           
   545                           
   546                           ; 2 bytes @ 0x0
   547  0070                     	ds	2
   548  0072                     ??_readAnalog:
   549                           
   550                           ; 1 bytes @ 0x2
   551  0072                     	ds	3
   552  0075                     readAnalog@a:
   553                           
   554                           ; 2 bytes @ 0x5
   555  0075                     	ds	2
   556  0077                     readAnalog@b:
   557                           
   558                           ; 2 bytes @ 0x7
   559  0077                     	ds	2
   560  0079                     readAnalog@result:
   561                           
   562                           ; 2 bytes @ 0x9
   563  0079                     	ds	2
   564  007B                     ??_isr:
   565                           
   566                           ; 1 bytes @ 0xB
   567  007B                     	ds	3
   568                           
   569                           	psect	cstackBANK0
   570  0020                     __pcstackBANK0:
   571  0020                     ??_Lcd_Cmd:
   572  0020                     ??_Lcd_Write_Char:	
   573                           ; 1 bytes @ 0x0
   574                           
   575  0020                     ??_UART_Write:	
   576                           ; 1 bytes @ 0x0
   577                           
   578  0020                     ??_UART_Write_Char:	
   579                           ; 1 bytes @ 0x0
   580                           
   581  0020                     ??_UART_Init:	
   582                           ; 1 bytes @ 0x0
   583                           
   584  0020                     ?___bmul:	
   585                           ; 1 bytes @ 0x0
   586                           
   587  0020                     ?__Umul8_16:	
   588                           ; 1 bytes @ 0x0
   589                           
   590  0020                     ?___wmul:	
   591                           ; 2 bytes @ 0x0
   592                           
   593  0020                     ?___xxtofl:	
   594                           ; 2 bytes @ 0x0
   595                           
   596  0020                     UART_Write_Char@character:	
   597                           ; 4 bytes @ 0x0
   598                           
   599  0020                     ___bmul@multiplicand:	
   600                           ; 1 bytes @ 0x0
   601                           
   602  0020                     __Umul8_16@multiplicand:	
   603                           ; 1 bytes @ 0x0
   604                           
   605  0020                     ___wmul@multiplier:	
   606                           ; 1 bytes @ 0x0
   607                           
   608  0020                     ___xxtofl@val:	
   609                           ; 2 bytes @ 0x0
   610                           
   611                           
   612                           ; 4 bytes @ 0x0
   613  0020                     	ds	1
   614  0021                     ??___bmul:
   615  0021                     UART_Write@word:	
   616                           ; 1 bytes @ 0x1
   617                           
   618                           
   619                           ; 1 bytes @ 0x1
   620  0021                     	ds	1
   621  0022                     ??__Umul8_16:
   622  0022                     Lcd_Cmd@a:	
   623                           ; 1 bytes @ 0x2
   624                           
   625  0022                     Lcd_Write_Char@a:	
   626                           ; 1 bytes @ 0x2
   627                           
   628  0022                     ___bmul@product:	
   629                           ; 1 bytes @ 0x2
   630                           
   631  0022                     ___wmul@multiplicand:	
   632                           ; 1 bytes @ 0x2
   633                           
   634                           
   635                           ; 2 bytes @ 0x2
   636  0022                     	ds	1
   637  0023                     ??_Lcd_Write_String:
   638  0023                     ??_Lcd_Init:	
   639                           ; 1 bytes @ 0x3
   640                           
   641  0023                     ___bmul@multiplier:	
   642                           ; 1 bytes @ 0x3
   643                           
   644  0023                     Lcd_Write_String@i:	
   645                           ; 1 bytes @ 0x3
   646                           
   647                           
   648                           ; 2 bytes @ 0x3
   649  0023                     	ds	1
   650  0024                     ??___wmul:
   651  0024                     ??___xxtofl:	
   652                           ; 1 bytes @ 0x4
   653                           
   654  0024                     ___wmul@product:	
   655                           ; 1 bytes @ 0x4
   656                           
   657  0024                     __Umul8_16@product:	
   658                           ; 2 bytes @ 0x4
   659                           
   660                           
   661                           ; 2 bytes @ 0x4
   662  0024                     	ds	1
   663  0025                     ??_setup:
   664  0025                     Lcd_Write_String@a:	
   665                           ; 1 bytes @ 0x5
   666                           
   667                           
   668                           ; 1 bytes @ 0x5
   669  0025                     	ds	1
   670  0026                     ?___lwdiv:
   671  0026                     ___lwdiv@divisor:	
   672                           ; 2 bytes @ 0x6
   673                           
   674  0026                     __Umul8_16@word_mpld:	
   675                           ; 2 bytes @ 0x6
   676                           
   677                           
   678                           ; 2 bytes @ 0x6
   679  0026                     	ds	2
   680  0028                     __Umul8_16@multiplier:
   681  0028                     ___xxtofl@sign:	
   682                           ; 1 bytes @ 0x8
   683                           
   684  0028                     ___lwdiv@dividend:	
   685                           ; 1 bytes @ 0x8
   686                           
   687                           
   688                           ; 2 bytes @ 0x8
   689  0028                     	ds	1
   690  0029                     ___xxtofl@exp:
   691                           
   692                           ; 1 bytes @ 0x9
   693  0029                     	ds	1
   694  002A                     ??___lwdiv:
   695  002A                     ___xxtofl@arg:	
   696                           ; 1 bytes @ 0xA
   697                           
   698                           
   699                           ; 4 bytes @ 0xA
   700  002A                     	ds	1
   701  002B                     ___lwdiv@quotient:
   702                           
   703                           ; 2 bytes @ 0xB
   704  002B                     	ds	2
   705  002D                     ___lwdiv@counter:
   706                           
   707                           ; 1 bytes @ 0xD
   708  002D                     	ds	1
   709  002E                     ?_divide:
   710  002E                     ?___flmul:	
   711                           ; 1 bytes @ 0xE
   712                           
   713  002E                     divide@value:	
   714                           ; 4 bytes @ 0xE
   715                           
   716  002E                     ___flmul@b:	
   717                           ; 2 bytes @ 0xE
   718                           
   719                           
   720                           ; 4 bytes @ 0xE
   721  002E                     	ds	2
   722  0030                     divide@mil:
   723                           
   724                           ; 1 bytes @ 0x10
   725  0030                     	ds	1
   726  0031                     divide@cent:
   727                           
   728                           ; 1 bytes @ 0x11
   729  0031                     	ds	1
   730  0032                     divide@dec:
   731  0032                     ___flmul@a:	
   732                           ; 1 bytes @ 0x12
   733                           
   734                           
   735                           ; 4 bytes @ 0x12
   736  0032                     	ds	1
   737  0033                     divide@unit:
   738                           
   739                           ; 1 bytes @ 0x13
   740  0033                     	ds	1
   741  0034                     ??_divide:
   742                           
   743                           ; 1 bytes @ 0x14
   744  0034                     	ds	2
   745  0036                     ??___flmul:
   746                           
   747                           ; 1 bytes @ 0x16
   748  0036                     	ds	5
   749  003B                     ___flmul@sign:
   750                           
   751                           ; 1 bytes @ 0x1B
   752  003B                     	ds	1
   753  003C                     ___flmul@grs:
   754                           
   755                           ; 4 bytes @ 0x1C
   756  003C                     	ds	4
   757  0040                     ___flmul@aexp:
   758                           
   759                           ; 1 bytes @ 0x20
   760  0040                     	ds	1
   761  0041                     ___flmul@bexp:
   762                           
   763                           ; 1 bytes @ 0x21
   764  0041                     	ds	1
   765  0042                     ___flmul@prod:
   766                           
   767                           ; 4 bytes @ 0x22
   768  0042                     	ds	4
   769  0046                     ___flmul@temp:
   770                           
   771                           ; 2 bytes @ 0x26
   772  0046                     	ds	2
   773  0048                     ?___fldiv:
   774  0048                     ___fldiv@a:	
   775                           ; 4 bytes @ 0x28
   776                           
   777                           
   778                           ; 4 bytes @ 0x28
   779  0048                     	ds	4
   780  004C                     ___fldiv@b:
   781                           
   782                           ; 4 bytes @ 0x2C
   783  004C                     	ds	4
   784  0050                     ??___fldiv:
   785                           
   786                           ; 1 bytes @ 0x30
   787  0050                     	ds	5
   788  0055                     ___fldiv@rem:
   789                           
   790                           ; 4 bytes @ 0x35
   791  0055                     	ds	4
   792  0059                     ___fldiv@sign:
   793                           
   794                           ; 1 bytes @ 0x39
   795  0059                     	ds	1
   796  005A                     ___fldiv@new_exp:
   797                           
   798                           ; 2 bytes @ 0x3A
   799  005A                     	ds	2
   800  005C                     ___fldiv@grs:
   801                           
   802                           ; 4 bytes @ 0x3C
   803  005C                     	ds	4
   804  0060                     ___fldiv@bexp:
   805                           
   806                           ; 1 bytes @ 0x40
   807  0060                     	ds	1
   808  0061                     ___fldiv@aexp:
   809                           
   810                           ; 1 bytes @ 0x41
   811  0061                     	ds	1
   812  0062                     ?___fltol:
   813  0062                     ___fltol@f1:	
   814                           ; 4 bytes @ 0x42
   815                           
   816                           
   817                           ; 4 bytes @ 0x42
   818  0062                     	ds	4
   819  0066                     ??___fltol:
   820                           
   821                           ; 1 bytes @ 0x46
   822  0066                     	ds	5
   823  006B                     ___fltol@sign1:
   824                           
   825                           ; 1 bytes @ 0x4B
   826  006B                     	ds	1
   827  006C                     ___fltol@exp1:
   828                           
   829                           ; 1 bytes @ 0x4C
   830  006C                     	ds	1
   831                           
   832                           	psect	maintext
   833  0382                     __pmaintext:	
   834 ;;
   835 ;;Main: autosize = 0, tempsize = 6, incstack = 0, save=0
   836 ;;
   837 ;; *************** function _main *****************
   838 ;; Defined at:
   839 ;;		line 74 in file "main.c"
   840 ;; Parameters:    Size  Location     Type
   841 ;;		None
   842 ;; Auto vars:     Size  Location     Type
   843 ;;		None
   844 ;; Return value:  Size  Location     Type
   845 ;;                  1    wreg      void 
   846 ;; Registers used:
   847 ;;		wreg, fsr0l, fsr0h, status,2, status,0, btemp+1, pclath, cstack
   848 ;; Tracked objects:
   849 ;;		On entry : B00/0
   850 ;;		On exit  : 0/0
   851 ;;		Unchanged: 0/0
   852 ;; Data sizes:     COMMON   BANK0   BANK1   BANK3   BANK2
   853 ;;      Params:         0       0       0       0       0
   854 ;;      Locals:         0       0       0       0       0
   855 ;;      Temps:          0       0       6       0       0
   856 ;;      Totals:         0       0       6       0       0
   857 ;;Total ram usage:        6 bytes
   858 ;; Hardware stack levels required when called: 5
   859 ;; This function calls:
   860 ;;		_Lcd_Cmd
   861 ;;		_Lcd_Write_Char
   862 ;;		_Lcd_Write_String
   863 ;;		_UART_Write
   864 ;;		_UART_Write_Char
   865 ;;		___fldiv
   866 ;;		___flmul
   867 ;;		___fltol
   868 ;;		___xxtofl
   869 ;;		_divide
   870 ;;		_setup
   871 ;; This function is called by:
   872 ;;		Startup code after reset
   873 ;; This function uses a non-reentrant model
   874 ;;
   875                           
   876                           
   877                           ;psect for function _main
   878  0382                     _main:
   879  0382                     l2042:	
   880                           ;incstack = 0
   881                           ; Regs used in _main: [wreg-fsr0h+status,2+status,0+btemp+1+pclath+cstack]
   882                           
   883                           
   884                           ;main.c: 75:     setup();
   885  0382  120A  158A  24CE  120A  118A  	fcall	_setup
   886  0387                     l2044:
   887                           
   888                           ;main.c: 76:     Lcd_Write_String("  V1    V2    V3 ");
   889  0387  3001               	movlw	(low ((STR_1-__stringbase)| (0+32768)))& (0+255)
   890  0388  120A  158A  2451  120A  118A  	fcall	_Lcd_Write_String
   891  038D                     l2046:
   892                           
   893                           ;main.c: 81:         GO = 1;
   894  038D  1283               	bcf	3,5	;RP0=0, select bank0
   895  038E  1303               	bcf	3,6	;RP1=0, select bank0
   896  038F  149F               	bsf	31,1	;volatile
   897  0390                     l2048:
   898                           
   899                           ;main.c: 82:         _delay((unsigned long)((100)*(4000000/4000000.0)));
   900  0390  3020               	movlw	32
   901  0391  1683               	bsf	3,5	;RP0=1, select bank1
   902  0392  1303               	bcf	3,6	;RP1=0, select bank1
   903  0393  00B7               	movwf	??_main^(0+128)
   904  0394                     u2457:
   905  0394  0BB7               	decfsz	??_main^(0+128),f
   906  0395  2B94               	goto	u2457
   907  0396  0000               	nop
   908  0397                     l2050:
   909                           
   910                           ;main.c: 83:         v1 = (float)5000*(float)read_an1/(float)1024;
   911  0397  1683               	bsf	3,5	;RP0=1, select bank1
   912  0398  1303               	bcf	3,6	;RP1=0, select bank1
   913  0399  082C               	movf	_read_an1^(0+128),w
   914  039A  1283               	bcf	3,5	;RP0=0, select bank0
   915  039B  1303               	bcf	3,6	;RP1=0, select bank0
   916  039C  00A0               	movwf	___xxtofl@val
   917  039D  1683               	bsf	3,5	;RP0=1, select bank1
   918  039E  1303               	bcf	3,6	;RP1=0, select bank1
   919  039F  082D               	movf	(_read_an1+1)^(0+128),w
   920  03A0  1283               	bcf	3,5	;RP0=0, select bank0
   921  03A1  1303               	bcf	3,6	;RP1=0, select bank0
   922  03A2  00A1               	movwf	___xxtofl@val+1
   923  03A3  01A2               	clrf	___xxtofl@val+2
   924  03A4  01A3               	clrf	___xxtofl@val+3
   925  03A5  3000               	movlw	0
   926  03A6  120A  118A  26F4  120A  118A  	fcall	___xxtofl
   927  03AB  1283               	bcf	3,5	;RP0=0, select bank0
   928  03AC  1303               	bcf	3,6	;RP1=0, select bank0
   929  03AD  0823               	movf	?___xxtofl+3,w
   930  03AE  00B5               	movwf	___flmul@a+3
   931  03AF  0822               	movf	?___xxtofl+2,w
   932  03B0  00B4               	movwf	___flmul@a+2
   933  03B1  0821               	movf	?___xxtofl+1,w
   934  03B2  00B3               	movwf	___flmul@a+1
   935  03B3  0820               	movf	?___xxtofl,w
   936  03B4  00B2               	movwf	___flmul@a
   937  03B5  3045               	movlw	69
   938  03B6  00B1               	movwf	___flmul@b+3
   939  03B7  309C               	movlw	156
   940  03B8  00B0               	movwf	___flmul@b+2
   941  03B9  3040               	movlw	64
   942  03BA  00AF               	movwf	___flmul@b+1
   943  03BB  3000               	movlw	0
   944  03BC  00AE               	movwf	___flmul@b
   945  03BD  120A  118A  2021  120A  118A  	fcall	___flmul
   946  03C2  1283               	bcf	3,5	;RP0=0, select bank0
   947  03C3  1303               	bcf	3,6	;RP1=0, select bank0
   948  03C4  0831               	movf	?___flmul+3,w
   949  03C5  00CF               	movwf	___fldiv@b+3
   950  03C6  0830               	movf	?___flmul+2,w
   951  03C7  00CE               	movwf	___fldiv@b+2
   952  03C8  082F               	movf	?___flmul+1,w
   953  03C9  00CD               	movwf	___fldiv@b+1
   954  03CA  082E               	movf	?___flmul,w
   955  03CB  00CC               	movwf	___fldiv@b
   956  03CC  3044               	movlw	68
   957  03CD  00CB               	movwf	___fldiv@a+3
   958  03CE  3080               	movlw	128
   959  03CF  00CA               	movwf	___fldiv@a+2
   960  03D0  3000               	movlw	0
   961  03D1  00C9               	movwf	___fldiv@a+1
   962  03D2  3000               	movlw	0
   963  03D3  00C8               	movwf	___fldiv@a
   964  03D4  120A  158A  2623  120A  118A  	fcall	___fldiv
   965  03D9  1283               	bcf	3,5	;RP0=0, select bank0
   966  03DA  1303               	bcf	3,6	;RP1=0, select bank0
   967  03DB  084B               	movf	?___fldiv+3,w
   968  03DC  00E5               	movwf	___fltol@f1+3
   969  03DD  084A               	movf	?___fldiv+2,w
   970  03DE  00E4               	movwf	___fltol@f1+2
   971  03DF  0849               	movf	?___fldiv+1,w
   972  03E0  00E3               	movwf	___fltol@f1+1
   973  03E1  0848               	movf	?___fldiv,w
   974  03E2  00E2               	movwf	___fltol@f1
   975  03E3  120A  158A  25A7  120A  118A  	fcall	___fltol
   976  03E8  1283               	bcf	3,5	;RP0=0, select bank0
   977  03E9  1303               	bcf	3,6	;RP1=0, select bank0
   978  03EA  0863               	movf	?___fltol+1,w
   979  03EB  1683               	bsf	3,5	;RP0=1, select bank1
   980  03EC  1303               	bcf	3,6	;RP1=0, select bank1
   981  03ED  00A7               	movwf	(_v1+1)^(0+128)
   982  03EE  1283               	bcf	3,5	;RP0=0, select bank0
   983  03EF  1303               	bcf	3,6	;RP1=0, select bank0
   984  03F0  0862               	movf	?___fltol,w
   985  03F1  1683               	bsf	3,5	;RP0=1, select bank1
   986  03F2  1303               	bcf	3,6	;RP1=0, select bank1
   987  03F3  00A6               	movwf	_v1^(0+128)
   988  03F4                     l2052:
   989                           
   990                           ;main.c: 84:         v2 = (float)5000*(float)read_an2/(float)1024;
   991  03F4  082A               	movf	_read_an2^(0+128),w
   992  03F5  1283               	bcf	3,5	;RP0=0, select bank0
   993  03F6  1303               	bcf	3,6	;RP1=0, select bank0
   994  03F7  00A0               	movwf	___xxtofl@val
   995  03F8  1683               	bsf	3,5	;RP0=1, select bank1
   996  03F9  1303               	bcf	3,6	;RP1=0, select bank1
   997  03FA  082B               	movf	(_read_an2+1)^(0+128),w
   998  03FB  1283               	bcf	3,5	;RP0=0, select bank0
   999  03FC  1303               	bcf	3,6	;RP1=0, select bank0
  1000  03FD  00A1               	movwf	___xxtofl@val+1
  1001  03FE  01A2               	clrf	___xxtofl@val+2
  1002  03FF  01A3               	clrf	___xxtofl@val+3
  1003  0400  3000               	movlw	0
  1004  0401  120A  118A  26F4  120A  118A  	fcall	___xxtofl
  1005  0406  1283               	bcf	3,5	;RP0=0, select bank0
  1006  0407  1303               	bcf	3,6	;RP1=0, select bank0
  1007  0408  0823               	movf	?___xxtofl+3,w
  1008  0409  00B5               	movwf	___flmul@a+3
  1009  040A  0822               	movf	?___xxtofl+2,w
  1010  040B  00B4               	movwf	___flmul@a+2
  1011  040C  0821               	movf	?___xxtofl+1,w
  1012  040D  00B3               	movwf	___flmul@a+1
  1013  040E  0820               	movf	?___xxtofl,w
  1014  040F  00B2               	movwf	___flmul@a
  1015  0410  3045               	movlw	69
  1016  0411  00B1               	movwf	___flmul@b+3
  1017  0412  309C               	movlw	156
  1018  0413  00B0               	movwf	___flmul@b+2
  1019  0414  3040               	movlw	64
  1020  0415  00AF               	movwf	___flmul@b+1
  1021  0416  3000               	movlw	0
  1022  0417  00AE               	movwf	___flmul@b
  1023  0418  120A  118A  2021  120A  118A  	fcall	___flmul
  1024  041D  1283               	bcf	3,5	;RP0=0, select bank0
  1025  041E  1303               	bcf	3,6	;RP1=0, select bank0
  1026  041F  0831               	movf	?___flmul+3,w
  1027  0420  00CF               	movwf	___fldiv@b+3
  1028  0421  0830               	movf	?___flmul+2,w
  1029  0422  00CE               	movwf	___fldiv@b+2
  1030  0423  082F               	movf	?___flmul+1,w
  1031  0424  00CD               	movwf	___fldiv@b+1
  1032  0425  082E               	movf	?___flmul,w
  1033  0426  00CC               	movwf	___fldiv@b
  1034  0427  3044               	movlw	68
  1035  0428  00CB               	movwf	___fldiv@a+3
  1036  0429  3080               	movlw	128
  1037  042A  00CA               	movwf	___fldiv@a+2
  1038  042B  3000               	movlw	0
  1039  042C  00C9               	movwf	___fldiv@a+1
  1040  042D  3000               	movlw	0
  1041  042E  00C8               	movwf	___fldiv@a
  1042  042F  120A  158A  2623  120A  118A  	fcall	___fldiv
  1043  0434  1283               	bcf	3,5	;RP0=0, select bank0
  1044  0435  1303               	bcf	3,6	;RP1=0, select bank0
  1045  0436  084B               	movf	?___fldiv+3,w
  1046  0437  00E5               	movwf	___fltol@f1+3
  1047  0438  084A               	movf	?___fldiv+2,w
  1048  0439  00E4               	movwf	___fltol@f1+2
  1049  043A  0849               	movf	?___fldiv+1,w
  1050  043B  00E3               	movwf	___fltol@f1+1
  1051  043C  0848               	movf	?___fldiv,w
  1052  043D  00E2               	movwf	___fltol@f1
  1053  043E  120A  158A  25A7  120A  118A  	fcall	___fltol
  1054  0443  1283               	bcf	3,5	;RP0=0, select bank0
  1055  0444  1303               	bcf	3,6	;RP1=0, select bank0
  1056  0445  0863               	movf	?___fltol+1,w
  1057  0446  1683               	bsf	3,5	;RP0=1, select bank1
  1058  0447  1303               	bcf	3,6	;RP1=0, select bank1
  1059  0448  00A3               	movwf	(_v2+1)^(0+128)
  1060  0449  1283               	bcf	3,5	;RP0=0, select bank0
  1061  044A  1303               	bcf	3,6	;RP1=0, select bank0
  1062  044B  0862               	movf	?___fltol,w
  1063  044C  1683               	bsf	3,5	;RP0=1, select bank1
  1064  044D  1303               	bcf	3,6	;RP1=0, select bank1
  1065  044E  00A2               	movwf	_v2^(0+128)
  1066  044F                     l2054:
  1067                           
  1068                           ;main.c: 85:         if(RCIF){
  1069  044F  1283               	bcf	3,5	;RP0=0, select bank0
  1070  0450  1303               	bcf	3,6	;RP1=0, select bank0
  1071  0451  1E8C               	btfss	12,5	;volatile
  1072  0452  2C54               	goto	u2341
  1073  0453  2C55               	goto	u2340
  1074  0454                     u2341:
  1075  0454  2C6C               	goto	l2062
  1076  0455                     u2340:
  1077  0455                     l2056:
  1078                           
  1079                           ;main.c: 86:             if(RCREG==43){
  1080  0455  302B               	movlw	43
  1081  0456  061A               	xorwf	26,w	;volatile
  1082  0457  1D03               	btfss	3,2
  1083  0458  2C5A               	goto	u2351
  1084  0459  2C5B               	goto	u2350
  1085  045A                     u2351:
  1086  045A  2C61               	goto	l111
  1087  045B                     u2350:
  1088  045B                     l2058:
  1089                           
  1090                           ;main.c: 87:                 counter++;
  1091  045B  3001               	movlw	1
  1092  045C  1683               	bsf	3,5	;RP0=1, select bank1
  1093  045D  1303               	bcf	3,6	;RP1=0, select bank1
  1094  045E  00B7               	movwf	??_main^(0+128)
  1095  045F  0837               	movf	??_main^(0+128),w
  1096  0460  07A9               	addwf	_counter^(0+128),f
  1097  0461                     l111:	
  1098                           ;main.c: 88:             }
  1099                           
  1100                           
  1101                           ;main.c: 89:             if(RCREG==45){
  1102  0461  302D               	movlw	45
  1103  0462  1283               	bcf	3,5	;RP0=0, select bank0
  1104  0463  061A               	xorwf	26,w	;volatile
  1105  0464  1D03               	btfss	3,2
  1106  0465  2C67               	goto	u2361
  1107  0466  2C68               	goto	u2360
  1108  0467                     u2361:
  1109  0467  2C6C               	goto	l2062
  1110  0468                     u2360:
  1111  0468                     l2060:
  1112                           
  1113                           ;main.c: 90:                 counter--;
  1114  0468  3001               	movlw	1
  1115  0469  1683               	bsf	3,5	;RP0=1, select bank1
  1116  046A  1303               	bcf	3,6	;RP1=0, select bank1
  1117  046B  02A9               	subwf	_counter^(0+128),f
  1118  046C                     l2062:
  1119                           
  1120                           ;main.c: 94:         if(v1!=v1_compare || v2!=v2_compare){
  1121  046C  1683               	bsf	3,5	;RP0=1, select bank1
  1122  046D  1303               	bcf	3,6	;RP1=0, select bank1
  1123  046E  0825               	movf	(_v1_compare+1)^(0+128),w
  1124  046F  0627               	xorwf	(_v1+1)^(0+128),w
  1125  0470  1D03               	skipz
  1126  0471  2C74               	goto	u2375
  1127  0472  0824               	movf	_v1_compare^(0+128),w
  1128  0473  0626               	xorwf	_v1^(0+128),w
  1129  0474                     u2375:
  1130  0474  1D03               	skipz
  1131  0475  2C77               	goto	u2371
  1132  0476  2C78               	goto	u2370
  1133  0477                     u2371:
  1134  0477  2C82               	goto	l2066
  1135  0478                     u2370:
  1136  0478                     l2064:
  1137  0478  0821               	movf	(_v2_compare+1)^(0+128),w
  1138  0479  0623               	xorwf	(_v2+1)^(0+128),w
  1139  047A  1D03               	skipz
  1140  047B  2C7E               	goto	u2385
  1141  047C  0820               	movf	_v2_compare^(0+128),w
  1142  047D  0622               	xorwf	_v2^(0+128),w
  1143  047E                     u2385:
  1144  047E  1903               	skipnz
  1145  047F  2C81               	goto	u2381
  1146  0480  2C82               	goto	u2380
  1147  0481                     u2381:
  1148  0481  2DAA               	goto	l2122
  1149  0482                     u2380:
  1150  0482                     l2066:
  1151                           
  1152                           ;main.c: 95:             v1_compare = v1;
  1153  0482  0827               	movf	(_v1+1)^(0+128),w
  1154  0483  00A5               	movwf	(_v1_compare+1)^(0+128)
  1155  0484  0826               	movf	_v1^(0+128),w
  1156  0485  00A4               	movwf	_v1_compare^(0+128)
  1157                           
  1158                           ;main.c: 96:             v2_compare = v2;
  1159  0486  0823               	movf	(_v2+1)^(0+128),w
  1160  0487  00A1               	movwf	(_v2_compare+1)^(0+128)
  1161  0488  0822               	movf	_v2^(0+128),w
  1162  0489  00A0               	movwf	_v2_compare^(0+128)
  1163  048A                     l2068:
  1164                           
  1165                           ;main.c: 97:             divide(v1, &m1, &c1, &d1, &u1);
  1166  048A  0827               	movf	(_v1+1)^(0+128),w
  1167  048B  1283               	bcf	3,5	;RP0=0, select bank0
  1168  048C  1303               	bcf	3,6	;RP1=0, select bank0
  1169  048D  00AF               	movwf	divide@value+1
  1170  048E  1683               	bsf	3,5	;RP0=1, select bank1
  1171  048F  1303               	bcf	3,6	;RP1=0, select bank1
  1172  0490  0826               	movf	_v1^(0+128),w
  1173  0491  1283               	bcf	3,5	;RP0=0, select bank0
  1174  0492  1303               	bcf	3,6	;RP1=0, select bank0
  1175  0493  00AE               	movwf	divide@value
  1176  0494  306F               	movlw	(low (_m1| 0))& (0+255)
  1177  0495  1683               	bsf	3,5	;RP0=1, select bank1
  1178  0496  1303               	bcf	3,6	;RP1=0, select bank1
  1179  0497  00B7               	movwf	??_main^(0+128)
  1180  0498  0837               	movf	??_main^(0+128),w
  1181  0499  1283               	bcf	3,5	;RP0=0, select bank0
  1182  049A  1303               	bcf	3,6	;RP1=0, select bank0
  1183  049B  00B0               	movwf	divide@mil
  1184  049C  306E               	movlw	(low (_c1| 0))& (0+255)
  1185  049D  1683               	bsf	3,5	;RP0=1, select bank1
  1186  049E  1303               	bcf	3,6	;RP1=0, select bank1
  1187  049F  00B8               	movwf	(??_main+1)^(0+128)
  1188  04A0  0838               	movf	(??_main+1)^(0+128),w
  1189  04A1  1283               	bcf	3,5	;RP0=0, select bank0
  1190  04A2  1303               	bcf	3,6	;RP1=0, select bank0
  1191  04A3  00B1               	movwf	divide@cent
  1192  04A4  306D               	movlw	(low (_d1| 0))& (0+255)
  1193  04A5  1683               	bsf	3,5	;RP0=1, select bank1
  1194  04A6  1303               	bcf	3,6	;RP1=0, select bank1
  1195  04A7  00B9               	movwf	(??_main+2)^(0+128)
  1196  04A8  0839               	movf	(??_main+2)^(0+128),w
  1197  04A9  1283               	bcf	3,5	;RP0=0, select bank0
  1198  04AA  1303               	bcf	3,6	;RP1=0, select bank0
  1199  04AB  00B2               	movwf	divide@dec
  1200  04AC  30B6               	movlw	(low (_u1| 0))& (0+255)
  1201  04AD  1683               	bsf	3,5	;RP0=1, select bank1
  1202  04AE  1303               	bcf	3,6	;RP1=0, select bank1
  1203  04AF  00BA               	movwf	(??_main+3)^(0+128)
  1204  04B0  083A               	movf	(??_main+3)^(0+128),w
  1205  04B1  1283               	bcf	3,5	;RP0=0, select bank0
  1206  04B2  1303               	bcf	3,6	;RP1=0, select bank0
  1207  04B3  00B3               	movwf	divide@unit
  1208  04B4  120A  118A  2627  120A  118A  	fcall	_divide
  1209  04B9                     l2070:
  1210                           
  1211                           ;main.c: 98:             divide(v2, &m2, &c2, &d2, &u2);
  1212  04B9  1683               	bsf	3,5	;RP0=1, select bank1
  1213  04BA  1303               	bcf	3,6	;RP1=0, select bank1
  1214  04BB  0823               	movf	(_v2+1)^(0+128),w
  1215  04BC  1283               	bcf	3,5	;RP0=0, select bank0
  1216  04BD  1303               	bcf	3,6	;RP1=0, select bank0
  1217  04BE  00AF               	movwf	divide@value+1
  1218  04BF  1683               	bsf	3,5	;RP0=1, select bank1
  1219  04C0  1303               	bcf	3,6	;RP1=0, select bank1
  1220  04C1  0822               	movf	_v2^(0+128),w
  1221  04C2  1283               	bcf	3,5	;RP0=0, select bank0
  1222  04C3  1303               	bcf	3,6	;RP1=0, select bank0
  1223  04C4  00AE               	movwf	divide@value
  1224  04C5  30B5               	movlw	(low (_m2| 0))& (0+255)
  1225  04C6  1683               	bsf	3,5	;RP0=1, select bank1
  1226  04C7  1303               	bcf	3,6	;RP1=0, select bank1
  1227  04C8  00B7               	movwf	??_main^(0+128)
  1228  04C9  0837               	movf	??_main^(0+128),w
  1229  04CA  1283               	bcf	3,5	;RP0=0, select bank0
  1230  04CB  1303               	bcf	3,6	;RP1=0, select bank0
  1231  04CC  00B0               	movwf	divide@mil
  1232  04CD  30B4               	movlw	(low (_c2| 0))& (0+255)
  1233  04CE  1683               	bsf	3,5	;RP0=1, select bank1
  1234  04CF  1303               	bcf	3,6	;RP1=0, select bank1
  1235  04D0  00B8               	movwf	(??_main+1)^(0+128)
  1236  04D1  0838               	movf	(??_main+1)^(0+128),w
  1237  04D2  1283               	bcf	3,5	;RP0=0, select bank0
  1238  04D3  1303               	bcf	3,6	;RP1=0, select bank0
  1239  04D4  00B1               	movwf	divide@cent
  1240  04D5  30B3               	movlw	(low (_d2| 0))& (0+255)
  1241  04D6  1683               	bsf	3,5	;RP0=1, select bank1
  1242  04D7  1303               	bcf	3,6	;RP1=0, select bank1
  1243  04D8  00B9               	movwf	(??_main+2)^(0+128)
  1244  04D9  0839               	movf	(??_main+2)^(0+128),w
  1245  04DA  1283               	bcf	3,5	;RP0=0, select bank0
  1246  04DB  1303               	bcf	3,6	;RP1=0, select bank0
  1247  04DC  00B2               	movwf	divide@dec
  1248  04DD  30B2               	movlw	(low (_u2| 0))& (0+255)
  1249  04DE  1683               	bsf	3,5	;RP0=1, select bank1
  1250  04DF  1303               	bcf	3,6	;RP1=0, select bank1
  1251  04E0  00BA               	movwf	(??_main+3)^(0+128)
  1252  04E1  083A               	movf	(??_main+3)^(0+128),w
  1253  04E2  1283               	bcf	3,5	;RP0=0, select bank0
  1254  04E3  1303               	bcf	3,6	;RP1=0, select bank0
  1255  04E4  00B3               	movwf	divide@unit
  1256  04E5  120A  118A  2627  120A  118A  	fcall	_divide
  1257  04EA                     l2072:
  1258                           
  1259                           ;main.c: 100:             Lcd_Cmd(0b11000000);
  1260  04EA  30C0               	movlw	192
  1261  04EB  120A  158A  23A6  120A  118A  	fcall	_Lcd_Cmd
  1262  04F0                     l2074:
  1263                           
  1264                           ;main.c: 101:             Lcd_Write_Char(m1+48);
  1265  04F0  1283               	bcf	3,5	;RP0=0, select bank0
  1266  04F1  1303               	bcf	3,6	;RP1=0, select bank0
  1267  04F2  086F               	movf	_m1,w
  1268  04F3  3E30               	addlw	48
  1269  04F4  120A  158A  23E9  120A  118A  	fcall	_Lcd_Write_Char
  1270  04F9                     l2076:
  1271                           
  1272                           ;main.c: 102:             Lcd_Write_String(".");
  1273  04F9  3039               	movlw	(low ((STR_2-__stringbase)| (0+32768)))& (0+255)
  1274  04FA  120A  158A  2451  120A  118A  	fcall	_Lcd_Write_String
  1275  04FF                     l2078:
  1276                           
  1277                           ;main.c: 103:             Lcd_Write_Char(c1+48);
  1278  04FF  1283               	bcf	3,5	;RP0=0, select bank0
  1279  0500  1303               	bcf	3,6	;RP1=0, select bank0
  1280  0501  086E               	movf	_c1,w
  1281  0502  3E30               	addlw	48
  1282  0503  120A  158A  23E9  120A  118A  	fcall	_Lcd_Write_Char
  1283  0508                     l2080:
  1284                           
  1285                           ;main.c: 104:             Lcd_Write_Char(d1+48);
  1286  0508  1283               	bcf	3,5	;RP0=0, select bank0
  1287  0509  1303               	bcf	3,6	;RP1=0, select bank0
  1288  050A  086D               	movf	_d1,w
  1289  050B  3E30               	addlw	48
  1290  050C  120A  158A  23E9  120A  118A  	fcall	_Lcd_Write_Char
  1291  0511                     l2082:
  1292                           
  1293                           ;main.c: 105:             Lcd_Write_String("V ");
  1294  0511  3036               	movlw	(low ((STR_3-__stringbase)| (0+32768)))& (0+255)
  1295  0512  120A  158A  2451  120A  118A  	fcall	_Lcd_Write_String
  1296  0517                     l2084:
  1297                           
  1298                           ;main.c: 107:             UART_Write("Voltage 1 = ");
  1299  0517  3013               	movlw	(low ((STR_4-__stringbase)| (0+32768)))& (0+255)
  1300  0518  120A  158A  2405  120A  118A  	fcall	_UART_Write
  1301  051D                     l2086:
  1302                           
  1303                           ;main.c: 108:             UART_Write_Char(m1+48);
  1304  051D  1283               	bcf	3,5	;RP0=0, select bank0
  1305  051E  1303               	bcf	3,6	;RP1=0, select bank0
  1306  051F  086F               	movf	_m1,w
  1307  0520  3E30               	addlw	48
  1308  0521  120A  158A  239A  120A  118A  	fcall	_UART_Write_Char
  1309  0526                     l2088:
  1310                           
  1311                           ;main.c: 109:             UART_Write(".");
  1312  0526  3039               	movlw	(low ((STR_2-__stringbase)| (0+32768)))& (0+255)
  1313  0527  120A  158A  2405  120A  118A  	fcall	_UART_Write
  1314  052C                     l2090:
  1315                           
  1316                           ;main.c: 110:             UART_Write_Char(c1+48);
  1317  052C  1283               	bcf	3,5	;RP0=0, select bank0
  1318  052D  1303               	bcf	3,6	;RP1=0, select bank0
  1319  052E  086E               	movf	_c1,w
  1320  052F  3E30               	addlw	48
  1321  0530  120A  158A  239A  120A  118A  	fcall	_UART_Write_Char
  1322  0535                     l2092:
  1323                           
  1324                           ;main.c: 111:             UART_Write_Char(d1+48);
  1325  0535  1283               	bcf	3,5	;RP0=0, select bank0
  1326  0536  1303               	bcf	3,6	;RP1=0, select bank0
  1327  0537  086D               	movf	_d1,w
  1328  0538  3E30               	addlw	48
  1329  0539  120A  158A  239A  120A  118A  	fcall	_UART_Write_Char
  1330  053E                     l2094:
  1331                           
  1332                           ;main.c: 112:             UART_Write_Char(u1+48);
  1333  053E  1683               	bsf	3,5	;RP0=1, select bank1
  1334  053F  1303               	bcf	3,6	;RP1=0, select bank1
  1335  0540  0836               	movf	_u1^(0+128),w
  1336  0541  3E30               	addlw	48
  1337  0542  120A  158A  239A  120A  118A  	fcall	_UART_Write_Char
  1338  0547                     l2096:
  1339                           
  1340                           ;main.c: 113:             UART_Write(" V\r");
  1341  0547  3032               	movlw	(low ((STR_6-__stringbase)| (0+32768)))& (0+255)
  1342  0548  120A  158A  2405  120A  118A  	fcall	_UART_Write
  1343  054D                     l2098:
  1344                           
  1345                           ;main.c: 115:             Lcd_Write_Char(m2+48);
  1346  054D  1683               	bsf	3,5	;RP0=1, select bank1
  1347  054E  1303               	bcf	3,6	;RP1=0, select bank1
  1348  054F  0835               	movf	_m2^(0+128),w
  1349  0550  3E30               	addlw	48
  1350  0551  120A  158A  23E9  120A  118A  	fcall	_Lcd_Write_Char
  1351  0556                     l2100:
  1352                           
  1353                           ;main.c: 116:             Lcd_Write_String(".");
  1354  0556  3039               	movlw	(low ((STR_2-__stringbase)| (0+32768)))& (0+255)
  1355  0557  120A  158A  2451  120A  118A  	fcall	_Lcd_Write_String
  1356  055C                     l2102:
  1357                           
  1358                           ;main.c: 117:             Lcd_Write_Char(c2+48);
  1359  055C  1683               	bsf	3,5	;RP0=1, select bank1
  1360  055D  1303               	bcf	3,6	;RP1=0, select bank1
  1361  055E  0834               	movf	_c2^(0+128),w
  1362  055F  3E30               	addlw	48
  1363  0560  120A  158A  23E9  120A  118A  	fcall	_Lcd_Write_Char
  1364  0565                     l2104:
  1365                           
  1366                           ;main.c: 118:             Lcd_Write_Char(d2+48);
  1367  0565  1683               	bsf	3,5	;RP0=1, select bank1
  1368  0566  1303               	bcf	3,6	;RP1=0, select bank1
  1369  0567  0833               	movf	_d2^(0+128),w
  1370  0568  3E30               	addlw	48
  1371  0569  120A  158A  23E9  120A  118A  	fcall	_Lcd_Write_Char
  1372  056E                     l2106:
  1373                           
  1374                           ;main.c: 119:             Lcd_Write_String("V ");
  1375  056E  3036               	movlw	(low ((STR_3-__stringbase)| (0+32768)))& (0+255)
  1376  056F  120A  158A  2451  120A  118A  	fcall	_Lcd_Write_String
  1377  0574                     l2108:
  1378                           
  1379                           ;main.c: 121:             UART_Write("Voltage 2 = ");
  1380  0574  3020               	movlw	(low ((STR_9-__stringbase)| (0+32768)))& (0+255)
  1381  0575  120A  158A  2405  120A  118A  	fcall	_UART_Write
  1382  057A                     l2110:
  1383                           
  1384                           ;main.c: 122:             UART_Write_Char(m2+48);
  1385  057A  1683               	bsf	3,5	;RP0=1, select bank1
  1386  057B  1303               	bcf	3,6	;RP1=0, select bank1
  1387  057C  0835               	movf	_m2^(0+128),w
  1388  057D  3E30               	addlw	48
  1389  057E  120A  158A  239A  120A  118A  	fcall	_UART_Write_Char
  1390  0583                     l2112:
  1391                           
  1392                           ;main.c: 123:             UART_Write(".");
  1393  0583  3039               	movlw	(low ((STR_2-__stringbase)| (0+32768)))& (0+255)
  1394  0584  120A  158A  2405  120A  118A  	fcall	_UART_Write
  1395  0589                     l2114:
  1396                           
  1397                           ;main.c: 124:             UART_Write_Char(c2+48);
  1398  0589  1683               	bsf	3,5	;RP0=1, select bank1
  1399  058A  1303               	bcf	3,6	;RP1=0, select bank1
  1400  058B  0834               	movf	_c2^(0+128),w
  1401  058C  3E30               	addlw	48
  1402  058D  120A  158A  239A  120A  118A  	fcall	_UART_Write_Char
  1403  0592                     l2116:
  1404                           
  1405                           ;main.c: 125:             UART_Write_Char(d2+48);
  1406  0592  1683               	bsf	3,5	;RP0=1, select bank1
  1407  0593  1303               	bcf	3,6	;RP1=0, select bank1
  1408  0594  0833               	movf	_d2^(0+128),w
  1409  0595  3E30               	addlw	48
  1410  0596  120A  158A  239A  120A  118A  	fcall	_UART_Write_Char
  1411  059B                     l2118:
  1412                           
  1413                           ;main.c: 126:             UART_Write_Char(u2+48);
  1414  059B  1683               	bsf	3,5	;RP0=1, select bank1
  1415  059C  1303               	bcf	3,6	;RP1=0, select bank1
  1416  059D  0832               	movf	_u2^(0+128),w
  1417  059E  3E30               	addlw	48
  1418  059F  120A  158A  239A  120A  118A  	fcall	_UART_Write_Char
  1419  05A4                     l2120:
  1420                           
  1421                           ;main.c: 127:             UART_Write(" V\r\r");
  1422  05A4  302D               	movlw	(low ((STR_11-__stringbase)| (0+32768)))& (0+255)
  1423  05A5  120A  158A  2405  120A  118A  	fcall	_UART_Write
  1424  05AA                     l2122:
  1425                           
  1426                           ;main.c: 129:         if(counter_compare!=counter){
  1427  05AA  1683               	bsf	3,5	;RP0=1, select bank1
  1428  05AB  1303               	bcf	3,6	;RP1=0, select bank1
  1429  05AC  0828               	movf	_counter_compare^(0+128),w
  1430  05AD  0629               	xorwf	_counter^(0+128),w
  1431  05AE  1903               	skipnz
  1432  05AF  2DB1               	goto	u2391
  1433  05B0  2DB2               	goto	u2390
  1434  05B1                     u2391:
  1435  05B1  2B8D               	goto	l2046
  1436  05B2                     u2390:
  1437  05B2                     l2124:
  1438                           
  1439                           ;main.c: 130:             Lcd_Cmd(0b11001100);
  1440  05B2  30CC               	movlw	204
  1441  05B3  120A  158A  23A6  120A  118A  	fcall	_Lcd_Cmd
  1442  05B8                     l2126:
  1443                           
  1444                           ;main.c: 131:             counter_compare = counter;
  1445  05B8  1683               	bsf	3,5	;RP0=1, select bank1
  1446  05B9  1303               	bcf	3,6	;RP1=0, select bank1
  1447  05BA  0829               	movf	_counter^(0+128),w
  1448  05BB  00B7               	movwf	??_main^(0+128)
  1449  05BC  0837               	movf	??_main^(0+128),w
  1450  05BD  00A8               	movwf	_counter_compare^(0+128)
  1451  05BE                     l2128:
  1452                           
  1453                           ;main.c: 132:             divide(counter, &mc, &cc, &dc, &uc);
  1454  05BE  0829               	movf	_counter^(0+128),w
  1455  05BF  00B7               	movwf	??_main^(0+128)
  1456  05C0  01B8               	clrf	(??_main^(0+128)+1)
  1457  05C1  0837               	movf	??_main^(0+128),w
  1458  05C2  1283               	bcf	3,5	;RP0=0, select bank0
  1459  05C3  1303               	bcf	3,6	;RP1=0, select bank0
  1460  05C4  00AE               	movwf	divide@value
  1461  05C5  1683               	bsf	3,5	;RP0=1, select bank1
  1462  05C6  1303               	bcf	3,6	;RP1=0, select bank1
  1463  05C7  0838               	movf	(??_main+1)^(0+128),w
  1464  05C8  1283               	bcf	3,5	;RP0=0, select bank0
  1465  05C9  1303               	bcf	3,6	;RP1=0, select bank0
  1466  05CA  00AF               	movwf	divide@value+1
  1467  05CB  30B1               	movlw	(low (_mc| 0))& (0+255)
  1468  05CC  1683               	bsf	3,5	;RP0=1, select bank1
  1469  05CD  1303               	bcf	3,6	;RP1=0, select bank1
  1470  05CE  00B9               	movwf	(??_main+2)^(0+128)
  1471  05CF  0839               	movf	(??_main+2)^(0+128),w
  1472  05D0  1283               	bcf	3,5	;RP0=0, select bank0
  1473  05D1  1303               	bcf	3,6	;RP1=0, select bank0
  1474  05D2  00B0               	movwf	divide@mil
  1475  05D3  30B0               	movlw	(low (_cc| 0))& (0+255)
  1476  05D4  1683               	bsf	3,5	;RP0=1, select bank1
  1477  05D5  1303               	bcf	3,6	;RP1=0, select bank1
  1478  05D6  00BA               	movwf	(??_main+3)^(0+128)
  1479  05D7  083A               	movf	(??_main+3)^(0+128),w
  1480  05D8  1283               	bcf	3,5	;RP0=0, select bank0
  1481  05D9  1303               	bcf	3,6	;RP1=0, select bank0
  1482  05DA  00B1               	movwf	divide@cent
  1483  05DB  30AF               	movlw	(low (_dc| 0))& (0+255)
  1484  05DC  1683               	bsf	3,5	;RP0=1, select bank1
  1485  05DD  1303               	bcf	3,6	;RP1=0, select bank1
  1486  05DE  00BB               	movwf	(??_main+4)^(0+128)
  1487  05DF  083B               	movf	(??_main+4)^(0+128),w
  1488  05E0  1283               	bcf	3,5	;RP0=0, select bank0
  1489  05E1  1303               	bcf	3,6	;RP1=0, select bank0
  1490  05E2  00B2               	movwf	divide@dec
  1491  05E3  30AE               	movlw	(low (_uc| 0))& (0+255)
  1492  05E4  1683               	bsf	3,5	;RP0=1, select bank1
  1493  05E5  1303               	bcf	3,6	;RP1=0, select bank1
  1494  05E6  00BC               	movwf	(??_main+5)^(0+128)
  1495  05E7  083C               	movf	(??_main+5)^(0+128),w
  1496  05E8  1283               	bcf	3,5	;RP0=0, select bank0
  1497  05E9  1303               	bcf	3,6	;RP1=0, select bank0
  1498  05EA  00B3               	movwf	divide@unit
  1499  05EB  120A  118A  2627  120A  118A  	fcall	_divide
  1500  05F0                     l2130:
  1501                           
  1502                           ;main.c: 134:             if(cc==0){
  1503  05F0  1683               	bsf	3,5	;RP0=1, select bank1
  1504  05F1  1303               	bcf	3,6	;RP1=0, select bank1
  1505  05F2  0830               	movf	_cc^(0+128),w
  1506  05F3  1D03               	btfss	3,2
  1507  05F4  2DF6               	goto	u2401
  1508  05F5  2DF7               	goto	u2400
  1509  05F6                     u2401:
  1510  05F6  2DFE               	goto	l2134
  1511  05F7                     u2400:
  1512  05F7                     l2132:
  1513                           
  1514                           ;main.c: 135:                 Lcd_Write_String(" ");
  1515  05F7  3011               	movlw	(low (((STR_1+16)-__stringbase)| (0+32768)))& (0+255)
  1516  05F8  120A  158A  2451  120A  118A  	fcall	_Lcd_Write_String
  1517                           
  1518                           ;main.c: 136:             }
  1519  05FD  2E05               	goto	l2136
  1520  05FE                     l2134:
  1521                           
  1522                           ;main.c: 138:                 Lcd_Write_Char(cc+48);
  1523  05FE  0830               	movf	_cc^(0+128),w
  1524  05FF  3E30               	addlw	48
  1525  0600  120A  158A  23E9  120A  118A  	fcall	_Lcd_Write_Char
  1526  0605                     l2136:
  1527                           
  1528                           ;main.c: 140:             if(dc==0){
  1529  0605  1683               	bsf	3,5	;RP0=1, select bank1
  1530  0606  1303               	bcf	3,6	;RP1=0, select bank1
  1531  0607  082F               	movf	_dc^(0+128),w
  1532  0608  1D03               	btfss	3,2
  1533  0609  2E0B               	goto	u2411
  1534  060A  2E0C               	goto	u2410
  1535  060B                     u2411:
  1536  060B  2E13               	goto	l2140
  1537  060C                     u2410:
  1538  060C                     l2138:
  1539                           
  1540                           ;main.c: 141:                 Lcd_Write_String(" ");
  1541  060C  3011               	movlw	(low (((STR_1+16)-__stringbase)| (0+32768)))& (0+255)
  1542  060D  120A  158A  2451  120A  118A  	fcall	_Lcd_Write_String
  1543                           
  1544                           ;main.c: 142:             }
  1545  0612  2E1A               	goto	l120
  1546  0613                     l2140:
  1547                           
  1548                           ;main.c: 144:                 Lcd_Write_Char(dc+48);
  1549  0613  082F               	movf	_dc^(0+128),w
  1550  0614  3E30               	addlw	48
  1551  0615  120A  158A  23E9  120A  118A  	fcall	_Lcd_Write_Char
  1552  061A                     l120:	
  1553                           ;main.c: 145:             }
  1554                           
  1555                           
  1556                           ;main.c: 146:             Lcd_Write_Char(uc+48);
  1557  061A  1683               	bsf	3,5	;RP0=1, select bank1
  1558  061B  1303               	bcf	3,6	;RP1=0, select bank1
  1559  061C  082E               	movf	_uc^(0+128),w
  1560  061D  3E30               	addlw	48
  1561  061E  120A  158A  23E9  120A  118A  	fcall	_Lcd_Write_Char
  1562  0623  2B8D               	goto	l2046
  1563  0624  120A  118A  280C   	ljmp	start
  1564  0627                     __end_of_main:
  1565                           
  1566                           	psect	text1
  1567  0CCE                     __ptext1:	
  1568 ;; *************** function _setup *****************
  1569 ;; Defined at:
  1570 ;;		line 156 in file "main.c"
  1571 ;; Parameters:    Size  Location     Type
  1572 ;;		None
  1573 ;; Auto vars:     Size  Location     Type
  1574 ;;		None
  1575 ;; Return value:  Size  Location     Type
  1576 ;;                  1    wreg      void 
  1577 ;; Registers used:
  1578 ;;		wreg, status,2, status,0, pclath, cstack
  1579 ;; Tracked objects:
  1580 ;;		On entry : 0/0
  1581 ;;		On exit  : 0/0
  1582 ;;		Unchanged: 0/0
  1583 ;; Data sizes:     COMMON   BANK0   BANK1   BANK3   BANK2
  1584 ;;      Params:         0       0       0       0       0
  1585 ;;      Locals:         0       0       0       0       0
  1586 ;;      Temps:          0       0       0       0       0
  1587 ;;      Totals:         0       0       0       0       0
  1588 ;;Total ram usage:        0 bytes
  1589 ;; Hardware stack levels used: 1
  1590 ;; Hardware stack levels required when called: 4
  1591 ;; This function calls:
  1592 ;;		_Lcd_Init
  1593 ;;		_UART_Init
  1594 ;; This function is called by:
  1595 ;;		_main
  1596 ;; This function uses a non-reentrant model
  1597 ;;
  1598                           
  1599                           
  1600                           ;psect for function _setup
  1601  0CCE                     _setup:
  1602  0CCE                     l1600:	
  1603                           ;incstack = 0
  1604                           ; Regs used in _setup: [wreg+status,2+status,0+pclath+cstack]
  1605                           
  1606                           
  1607                           ;main.c: 158:     ANSEL = 0b00000011;
  1608  0CCE  3003               	movlw	3
  1609  0CCF  1683               	bsf	3,5	;RP0=1, select bank3
  1610  0CD0  1703               	bsf	3,6	;RP1=1, select bank3
  1611  0CD1  0088               	movwf	8	;volatile
  1612  0CD2                     l1602:
  1613                           
  1614                           ;main.c: 159:     ANSELH = 0;
  1615  0CD2  0189               	clrf	9	;volatile
  1616  0CD3                     l1604:
  1617                           
  1618                           ;main.c: 160:     TRISA = 0b00000011;
  1619  0CD3  3003               	movlw	3
  1620  0CD4  1683               	bsf	3,5	;RP0=1, select bank1
  1621  0CD5  1303               	bcf	3,6	;RP1=0, select bank1
  1622  0CD6  0085               	movwf	5	;volatile
  1623                           
  1624                           ;main.c: 161:     TRISB = 0;
  1625  0CD7  0186               	clrf	6	;volatile
  1626  0CD8                     l1606:
  1627                           
  1628                           ;main.c: 162:     TRISC = 0b10000000;
  1629  0CD8  3080               	movlw	128
  1630  0CD9  0087               	movwf	7	;volatile
  1631  0CDA                     l1608:
  1632                           
  1633                           ;main.c: 163:     TRISD = 0;
  1634  0CDA  0188               	clrf	8	;volatile
  1635  0CDB                     l1610:
  1636                           
  1637                           ;main.c: 164:     TRISE = 0;
  1638  0CDB  0189               	clrf	9	;volatile
  1639  0CDC                     l1612:
  1640                           
  1641                           ;main.c: 167:     GIE = 1;
  1642  0CDC  178B               	bsf	11,7	;volatile
  1643  0CDD                     l1614:
  1644                           
  1645                           ;main.c: 168:     PEIE = 1;
  1646  0CDD  170B               	bsf	11,6	;volatile
  1647  0CDE                     l1616:
  1648                           
  1649                           ;main.c: 169:     ADIE = 1;
  1650  0CDE  170C               	bsf	12,6	;volatile
  1651  0CDF                     l1618:
  1652                           
  1653                           ;main.c: 172:     ADCON0bits.ADCS = 0b01;
  1654  0CDF  1283               	bcf	3,5	;RP0=0, select bank0
  1655  0CE0  1303               	bcf	3,6	;RP1=0, select bank0
  1656  0CE1  081F               	movf	31,w	;volatile
  1657  0CE2  393F               	andlw	-193
  1658  0CE3  3840               	iorlw	64
  1659  0CE4  009F               	movwf	31	;volatile
  1660  0CE5                     l1620:
  1661                           
  1662                           ;main.c: 173:     ADCON0bits.CHS = 0b0000;
  1663  0CE5  30C3               	movlw	-61
  1664  0CE6  059F               	andwf	31,f	;volatile
  1665  0CE7                     l1622:
  1666                           
  1667                           ;main.c: 174:     ADON = 1;
  1668  0CE7  141F               	bsf	31,0	;volatile
  1669  0CE8                     l1624:
  1670                           
  1671                           ;main.c: 175:     ADIF = 0;
  1672  0CE8  130C               	bcf	12,6	;volatile
  1673  0CE9                     l1626:
  1674                           
  1675                           ;main.c: 177:     Lcd_Init();
  1676  0CE9  120A  158A  2546  120A  158A  	fcall	_Lcd_Init
  1677  0CEE                     l1628:
  1678                           
  1679                           ;main.c: 179:     UART_Init();
  1680  0CEE  120A  158A  23BC  120A  158A  	fcall	_UART_Init
  1681  0CF3                     l1630:
  1682                           
  1683                           ;main.c: 182:     PORTA = 0;
  1684  0CF3  1283               	bcf	3,5	;RP0=0, select bank0
  1685  0CF4  1303               	bcf	3,6	;RP1=0, select bank0
  1686  0CF5  0185               	clrf	5	;volatile
  1687  0CF6                     l1632:
  1688                           
  1689                           ;main.c: 183:     PORTB = 0;
  1690  0CF6  0186               	clrf	6	;volatile
  1691  0CF7                     l1634:
  1692                           
  1693                           ;main.c: 184:     PORTC = 0;
  1694  0CF7  0187               	clrf	7	;volatile
  1695  0CF8                     l1636:
  1696                           
  1697                           ;main.c: 185:     PORTD = 0;
  1698  0CF8  0188               	clrf	8	;volatile
  1699  0CF9                     l1638:
  1700                           
  1701                           ;main.c: 186:     PORTE = 0;
  1702  0CF9  0189               	clrf	9	;volatile
  1703  0CFA                     l1640:
  1704                           
  1705                           ;main.c: 189:     read_an1 = 0;
  1706  0CFA  1683               	bsf	3,5	;RP0=1, select bank1
  1707  0CFB  1303               	bcf	3,6	;RP1=0, select bank1
  1708  0CFC  01AC               	clrf	_read_an1^(0+128)
  1709  0CFD  01AD               	clrf	(_read_an1+1)^(0+128)
  1710  0CFE                     l1642:
  1711                           
  1712                           ;main.c: 190:     v1 = 0;
  1713  0CFE  01A6               	clrf	_v1^(0+128)
  1714  0CFF  01A7               	clrf	(_v1+1)^(0+128)
  1715  0D00                     l1644:
  1716                           
  1717                           ;main.c: 191:     read_an2 = 0;
  1718  0D00  01AA               	clrf	_read_an2^(0+128)
  1719  0D01  01AB               	clrf	(_read_an2+1)^(0+128)
  1720  0D02                     l1646:
  1721                           
  1722                           ;main.c: 192:     v2 = 0;
  1723  0D02  01A2               	clrf	_v2^(0+128)
  1724  0D03  01A3               	clrf	(_v2+1)^(0+128)
  1725  0D04                     l126:
  1726  0D04  0008               	return
  1727  0D05                     __end_of_setup:
  1728                           
  1729                           	psect	text2
  1730  0BBC                     __ptext2:	
  1731 ;; *************** function _UART_Init *****************
  1732 ;; Defined at:
  1733 ;;		line 76 in file "Digital2_toolbox.c"
  1734 ;; Parameters:    Size  Location     Type
  1735 ;;		None
  1736 ;; Auto vars:     Size  Location     Type
  1737 ;;		None
  1738 ;; Return value:  Size  Location     Type
  1739 ;;                  1    wreg      void 
  1740 ;; Registers used:
  1741 ;;		wreg, status,2
  1742 ;; Tracked objects:
  1743 ;;		On entry : 0/0
  1744 ;;		On exit  : 0/0
  1745 ;;		Unchanged: 0/0
  1746 ;; Data sizes:     COMMON   BANK0   BANK1   BANK3   BANK2
  1747 ;;      Params:         0       0       0       0       0
  1748 ;;      Locals:         0       0       0       0       0
  1749 ;;      Temps:          0       0       0       0       0
  1750 ;;      Totals:         0       0       0       0       0
  1751 ;;Total ram usage:        0 bytes
  1752 ;; Hardware stack levels used: 1
  1753 ;; Hardware stack levels required when called: 2
  1754 ;; This function calls:
  1755 ;;		Nothing
  1756 ;; This function is called by:
  1757 ;;		_setup
  1758 ;; This function uses a non-reentrant model
  1759 ;;
  1760                           
  1761                           
  1762                           ;psect for function _UART_Init
  1763  0BBC                     _UART_Init:
  1764  0BBC                     l1524:	
  1765                           ;incstack = 0
  1766                           ; Regs used in _UART_Init: [wreg+status,2]
  1767                           
  1768                           
  1769                           ;Digital2_toolbox.c: 78:     TXSTAbits.TXEN = 1;
  1770  0BBC  1683               	bsf	3,5	;RP0=1, select bank1
  1771  0BBD  1303               	bcf	3,6	;RP1=0, select bank1
  1772  0BBE  1698               	bsf	24,5	;volatile
  1773                           
  1774                           ;Digital2_toolbox.c: 79:     TXSTAbits.SYNC = 0;
  1775  0BBF  1218               	bcf	24,4	;volatile
  1776                           
  1777                           ;Digital2_toolbox.c: 80:     RCSTAbits.SPEN = 1;
  1778  0BC0  1283               	bcf	3,5	;RP0=0, select bank0
  1779  0BC1  1303               	bcf	3,6	;RP1=0, select bank0
  1780  0BC2  1798               	bsf	24,7	;volatile
  1781                           
  1782                           ;Digital2_toolbox.c: 81:     TXSTAbits.BRGH = 1;
  1783  0BC3  1683               	bsf	3,5	;RP0=1, select bank1
  1784  0BC4  1303               	bcf	3,6	;RP1=0, select bank1
  1785  0BC5  1518               	bsf	24,2	;volatile
  1786                           
  1787                           ;Digital2_toolbox.c: 82:     BRG16 = 0;
  1788  0BC6  1683               	bsf	3,5	;RP0=1, select bank3
  1789  0BC7  1703               	bsf	3,6	;RP1=1, select bank3
  1790  0BC8  1187               	bcf	7,3	;volatile
  1791  0BC9                     l1526:
  1792                           
  1793                           ;Digital2_toolbox.c: 83:     SPBRGH = 0;
  1794  0BC9  1683               	bsf	3,5	;RP0=1, select bank1
  1795  0BCA  1303               	bcf	3,6	;RP1=0, select bank1
  1796  0BCB  019A               	clrf	26	;volatile
  1797  0BCC                     l1528:
  1798                           
  1799                           ;Digital2_toolbox.c: 84:     SPBRG = 25;
  1800  0BCC  3019               	movlw	25
  1801  0BCD  0099               	movwf	25	;volatile
  1802  0BCE                     l1530:
  1803                           
  1804                           ;Digital2_toolbox.c: 87:     RCSTAbits.CREN = 1;
  1805  0BCE  1283               	bcf	3,5	;RP0=0, select bank0
  1806  0BCF  1303               	bcf	3,6	;RP1=0, select bank0
  1807  0BD0  1618               	bsf	24,4	;volatile
  1808  0BD1                     l189:
  1809  0BD1  0008               	return
  1810  0BD2                     __end_of_UART_Init:
  1811                           
  1812                           	psect	text3
  1813  0D46                     __ptext3:	
  1814 ;; *************** function _Lcd_Init *****************
  1815 ;; Defined at:
  1816 ;;		line 38 in file "Digital2_toolbox.c"
  1817 ;; Parameters:    Size  Location     Type
  1818 ;;		None
  1819 ;; Auto vars:     Size  Location     Type
  1820 ;;		None
  1821 ;; Return value:  Size  Location     Type
  1822 ;;                  1    wreg      void 
  1823 ;; Registers used:
  1824 ;;		wreg, status,2, status,0, pclath, cstack
  1825 ;; Tracked objects:
  1826 ;;		On entry : 0/0
  1827 ;;		On exit  : 0/0
  1828 ;;		Unchanged: 0/0
  1829 ;; Data sizes:     COMMON   BANK0   BANK1   BANK3   BANK2
  1830 ;;      Params:         0       0       0       0       0
  1831 ;;      Locals:         0       0       0       0       0
  1832 ;;      Temps:          0       2       0       0       0
  1833 ;;      Totals:         0       2       0       0       0
  1834 ;;Total ram usage:        2 bytes
  1835 ;; Hardware stack levels used: 1
  1836 ;; Hardware stack levels required when called: 3
  1837 ;; This function calls:
  1838 ;;		_Lcd_Cmd
  1839 ;; This function is called by:
  1840 ;;		_setup
  1841 ;; This function uses a non-reentrant model
  1842 ;;
  1843                           
  1844                           
  1845                           ;psect for function _Lcd_Init
  1846  0D46                     _Lcd_Init:
  1847  0D46                     l1496:	
  1848                           ;incstack = 0
  1849                           ; Regs used in _Lcd_Init: [wreg+status,2+status,0+pclath+cstack]
  1850                           
  1851                           
  1852                           ;Digital2_toolbox.c: 39:     PORTD = 0;
  1853  0D46  1283               	bcf	3,5	;RP0=0, select bank0
  1854  0D47  1303               	bcf	3,6	;RP1=0, select bank0
  1855  0D48  0188               	clrf	8	;volatile
  1856  0D49                     l1498:
  1857                           
  1858                           ;Digital2_toolbox.c: 40:     _delay((unsigned long)((20)*(4000000/4000.0)));
  1859  0D49  301A               	movlw	26
  1860  0D4A  1283               	bcf	3,5	;RP0=0, select bank0
  1861  0D4B  1303               	bcf	3,6	;RP1=0, select bank0
  1862  0D4C  00A4               	movwf	??_Lcd_Init+1
  1863  0D4D  30F7               	movlw	247
  1864  0D4E  00A3               	movwf	??_Lcd_Init
  1865  0D4F                     u2467:
  1866  0D4F  0BA3               	decfsz	??_Lcd_Init,f
  1867  0D50  2D4F               	goto	u2467
  1868  0D51  0BA4               	decfsz	??_Lcd_Init+1,f
  1869  0D52  2D4F               	goto	u2467
  1870  0D53  2D54               	nop2
  1871  0D54                     l1500:
  1872                           
  1873                           ;Digital2_toolbox.c: 41:     Lcd_Cmd(0x030);
  1874  0D54  3030               	movlw	48
  1875  0D55  120A  158A  23A6  120A  158A  	fcall	_Lcd_Cmd
  1876  0D5A                     l1502:
  1877                           
  1878                           ;Digital2_toolbox.c: 42:     _delay((unsigned long)((5)*(4000000/4000.0)));
  1879  0D5A  3007               	movlw	7
  1880  0D5B  1283               	bcf	3,5	;RP0=0, select bank0
  1881  0D5C  1303               	bcf	3,6	;RP1=0, select bank0
  1882  0D5D  00A4               	movwf	??_Lcd_Init+1
  1883  0D5E  307C               	movlw	124
  1884  0D5F  00A3               	movwf	??_Lcd_Init
  1885  0D60                     u2477:
  1886  0D60  0BA3               	decfsz	??_Lcd_Init,f
  1887  0D61  2D60               	goto	u2477
  1888  0D62  0BA4               	decfsz	??_Lcd_Init+1,f
  1889  0D63  2D60               	goto	u2477
  1890  0D64  0000               	nop
  1891  0D65                     l1504:
  1892                           
  1893                           ;Digital2_toolbox.c: 43:     Lcd_Cmd(0x030);
  1894  0D65  3030               	movlw	48
  1895  0D66  120A  158A  23A6  120A  158A  	fcall	_Lcd_Cmd
  1896  0D6B                     l1506:
  1897                           
  1898                           ;Digital2_toolbox.c: 44:     _delay((unsigned long)((160)*(4000000/4000000.0)));
  1899  0D6B  3034               	movlw	52
  1900  0D6C  1283               	bcf	3,5	;RP0=0, select bank0
  1901  0D6D  1303               	bcf	3,6	;RP1=0, select bank0
  1902  0D6E  00A3               	movwf	??_Lcd_Init
  1903  0D6F                     u2487:
  1904  0D6F  0BA3               	decfsz	??_Lcd_Init,f
  1905  0D70  2D6F               	goto	u2487
  1906  0D71  0000               	nop
  1907  0D72                     l1508:
  1908                           
  1909                           ;Digital2_toolbox.c: 45:     Lcd_Cmd(0x030);
  1910  0D72  3030               	movlw	48
  1911  0D73  120A  158A  23A6  120A  158A  	fcall	_Lcd_Cmd
  1912  0D78                     l1510:
  1913                           
  1914                           ;Digital2_toolbox.c: 47:     Lcd_Cmd(0b00111000);
  1915  0D78  3038               	movlw	56
  1916  0D79  120A  158A  23A6  120A  158A  	fcall	_Lcd_Cmd
  1917  0D7E                     l1512:
  1918                           
  1919                           ;Digital2_toolbox.c: 48:     Lcd_Cmd(0x10);
  1920  0D7E  3010               	movlw	16
  1921  0D7F  120A  158A  23A6  120A  158A  	fcall	_Lcd_Cmd
  1922  0D84                     l1514:
  1923                           
  1924                           ;Digital2_toolbox.c: 49:     Lcd_Cmd(0x01);
  1925  0D84  3001               	movlw	1
  1926  0D85  120A  158A  23A6  120A  158A  	fcall	_Lcd_Cmd
  1927  0D8A                     l1516:
  1928                           
  1929                           ;Digital2_toolbox.c: 50:     Lcd_Cmd(0b00000110);
  1930  0D8A  3006               	movlw	6
  1931  0D8B  120A  158A  23A6  120A  158A  	fcall	_Lcd_Cmd
  1932  0D90                     l1518:
  1933                           
  1934                           ;Digital2_toolbox.c: 51:     Lcd_Cmd(0x10);
  1935  0D90  3010               	movlw	16
  1936  0D91  120A  158A  23A6  120A  158A  	fcall	_Lcd_Cmd
  1937  0D96                     l1520:
  1938                           
  1939                           ;Digital2_toolbox.c: 52:     Lcd_Cmd(0b00001100);
  1940  0D96  300C               	movlw	12
  1941  0D97  120A  158A  23A6  120A  158A  	fcall	_Lcd_Cmd
  1942  0D9C                     l1522:
  1943                           
  1944                           ;Digital2_toolbox.c: 53:     _delay((unsigned long)((100)*(4000000/4000.0)));
  1945  0D9C  3082               	movlw	130
  1946  0D9D  1283               	bcf	3,5	;RP0=0, select bank0
  1947  0D9E  1303               	bcf	3,6	;RP1=0, select bank0
  1948  0D9F  00A4               	movwf	??_Lcd_Init+1
  1949  0DA0  30DD               	movlw	221
  1950  0DA1  00A3               	movwf	??_Lcd_Init
  1951  0DA2                     u2497:
  1952  0DA2  0BA3               	decfsz	??_Lcd_Init,f
  1953  0DA3  2DA2               	goto	u2497
  1954  0DA4  0BA4               	decfsz	??_Lcd_Init+1,f
  1955  0DA5  2DA2               	goto	u2497
  1956  0DA6                     l177:
  1957  0DA6  0008               	return
  1958  0DA7                     __end_of_Lcd_Init:
  1959                           
  1960                           	psect	text4
  1961  0BA6                     __ptext4:	
  1962 ;; *************** function _Lcd_Cmd *****************
  1963 ;; Defined at:
  1964 ;;		line 24 in file "Digital2_toolbox.c"
  1965 ;; Parameters:    Size  Location     Type
  1966 ;;  a               1    wreg     unsigned char 
  1967 ;; Auto vars:     Size  Location     Type
  1968 ;;  a               1    2[BANK0 ] unsigned char 
  1969 ;; Return value:  Size  Location     Type
  1970 ;;                  1    wreg      void 
  1971 ;; Registers used:
  1972 ;;		wreg
  1973 ;; Tracked objects:
  1974 ;;		On entry : 0/0
  1975 ;;		On exit  : 0/0
  1976 ;;		Unchanged: 0/0
  1977 ;; Data sizes:     COMMON   BANK0   BANK1   BANK3   BANK2
  1978 ;;      Params:         0       0       0       0       0
  1979 ;;      Locals:         0       1       0       0       0
  1980 ;;      Temps:          0       2       0       0       0
  1981 ;;      Totals:         0       3       0       0       0
  1982 ;;Total ram usage:        3 bytes
  1983 ;; Hardware stack levels used: 1
  1984 ;; Hardware stack levels required when called: 2
  1985 ;; This function calls:
  1986 ;;		Nothing
  1987 ;; This function is called by:
  1988 ;;		_main
  1989 ;;		_Lcd_Init
  1990 ;;		_Lcd_Clear
  1991 ;; This function uses a non-reentrant model
  1992 ;;
  1993                           
  1994                           
  1995                           ;psect for function _Lcd_Cmd
  1996  0BA6                     _Lcd_Cmd:
  1997                           
  1998                           ;incstack = 0
  1999                           ; Regs used in _Lcd_Cmd: [wreg]
  2000                           ;Lcd_Cmd@a stored from wreg
  2001  0BA6  1283               	bcf	3,5	;RP0=0, select bank0
  2002  0BA7  1303               	bcf	3,6	;RP1=0, select bank0
  2003  0BA8  00A2               	movwf	Lcd_Cmd@a
  2004  0BA9                     l1480:
  2005                           
  2006                           ;Digital2_toolbox.c: 25:     RE0 = 0;
  2007  0BA9  1009               	bcf	9,0	;volatile
  2008  0BAA                     l1482:
  2009                           
  2010                           ;Digital2_toolbox.c: 26:     PORTD = a;
  2011  0BAA  0822               	movf	Lcd_Cmd@a,w
  2012  0BAB  0088               	movwf	8	;volatile
  2013  0BAC                     l1484:
  2014                           
  2015                           ;Digital2_toolbox.c: 27:     RE1 = 1;
  2016  0BAC  1489               	bsf	9,1	;volatile
  2017                           
  2018                           ;Digital2_toolbox.c: 28:     _delay((unsigned long)((4)*(4000000/4000.0)));
  2019  0BAD  3006               	movlw	6
  2020  0BAE  1283               	bcf	3,5	;RP0=0, select bank0
  2021  0BAF  1303               	bcf	3,6	;RP1=0, select bank0
  2022  0BB0  00A1               	movwf	??_Lcd_Cmd+1
  2023  0BB1  302F               	movlw	47
  2024  0BB2  00A0               	movwf	??_Lcd_Cmd
  2025  0BB3                     u2507:
  2026  0BB3  0BA0               	decfsz	??_Lcd_Cmd,f
  2027  0BB4  2BB3               	goto	u2507
  2028  0BB5  0BA1               	decfsz	??_Lcd_Cmd+1,f
  2029  0BB6  2BB3               	goto	u2507
  2030  0BB7  2BB8               	nop2
  2031  0BB8                     l1486:
  2032                           
  2033                           ;Digital2_toolbox.c: 29:     RE1 = 0;
  2034  0BB8  1283               	bcf	3,5	;RP0=0, select bank0
  2035  0BB9  1303               	bcf	3,6	;RP1=0, select bank0
  2036  0BBA  1089               	bcf	9,1	;volatile
  2037  0BBB                     l171:
  2038  0BBB  0008               	return
  2039  0BBC                     __end_of_Lcd_Cmd:
  2040                           
  2041                           	psect	text5
  2042  0627                     __ptext5:	
  2043 ;; *************** function _divide *****************
  2044 ;; Defined at:
  2045 ;;		line 196 in file "main.c"
  2046 ;; Parameters:    Size  Location     Type
  2047 ;;  value           2   14[BANK0 ] unsigned int 
  2048 ;;  mil             1   16[BANK0 ] PTR unsigned char 
  2049 ;;		 -> mc(1), m2(1), m1(1), 
  2050 ;;  cent            1   17[BANK0 ] PTR unsigned char 
  2051 ;;		 -> cc(1), c2(1), c1(1), 
  2052 ;;  dec             1   18[BANK0 ] PTR unsigned char 
  2053 ;;		 -> dc(1), d2(1), d1(1), 
  2054 ;;  unit            1   19[BANK0 ] PTR unsigned char 
  2055 ;;		 -> uc(1), u2(1), u1(1), 
  2056 ;; Auto vars:     Size  Location     Type
  2057 ;;		None
  2058 ;; Return value:  Size  Location     Type
  2059 ;;                  1    wreg      void 
  2060 ;; Registers used:
  2061 ;;		wreg, fsr0l, fsr0h, status,2, status,0, pclath, cstack
  2062 ;; Tracked objects:
  2063 ;;		On entry : 0/0
  2064 ;;		On exit  : 0/0
  2065 ;;		Unchanged: 0/0
  2066 ;; Data sizes:     COMMON   BANK0   BANK1   BANK3   BANK2
  2067 ;;      Params:         0       6       0       0       0
  2068 ;;      Locals:         0       0       0       0       0
  2069 ;;      Temps:          0       9       0       0       0
  2070 ;;      Totals:         0      15       0       0       0
  2071 ;;Total ram usage:       15 bytes
  2072 ;; Hardware stack levels used: 1
  2073 ;; Hardware stack levels required when called: 3
  2074 ;; This function calls:
  2075 ;;		___bmul
  2076 ;;		___lwdiv
  2077 ;;		___wmul
  2078 ;; This function is called by:
  2079 ;;		_main
  2080 ;; This function uses a non-reentrant model
  2081 ;;
  2082                           
  2083                           
  2084                           ;psect for function _divide
  2085  0627                     _divide:
  2086  0627                     l1656:	
  2087                           ;incstack = 0
  2088                           ; Regs used in _divide: [wreg-fsr0h+status,2+status,0+pclath+cstack]
  2089                           
  2090                           
  2091                           ;main.c: 197:     *mil=value/1000;
  2092  0627  30E8               	movlw	232
  2093  0628  1283               	bcf	3,5	;RP0=0, select bank0
  2094  0629  1303               	bcf	3,6	;RP1=0, select bank0
  2095  062A  00A6               	movwf	___lwdiv@divisor
  2096  062B  3003               	movlw	3
  2097  062C  00A7               	movwf	___lwdiv@divisor+1
  2098  062D  082F               	movf	divide@value+1,w
  2099  062E  00A9               	movwf	___lwdiv@dividend+1
  2100  062F  082E               	movf	divide@value,w
  2101  0630  00A8               	movwf	___lwdiv@dividend
  2102  0631  120A  118A  27B0  120A  118A  	fcall	___lwdiv
  2103  0636  1283               	bcf	3,5	;RP0=0, select bank0
  2104  0637  1303               	bcf	3,6	;RP1=0, select bank0
  2105  0638  0826               	movf	?___lwdiv,w
  2106  0639  00B4               	movwf	??_divide
  2107  063A  0830               	movf	divide@mil,w
  2108  063B  0084               	movwf	4
  2109  063C  0834               	movf	??_divide,w
  2110  063D  1383               	bcf	3,7	;select IRP bank0
  2111  063E  0080               	movwf	0
  2112                           
  2113                           ;main.c: 198:     *cent=(value-1000*(int)*mil)/100;
  2114  063F  3064               	movlw	100
  2115  0640  00A6               	movwf	___lwdiv@divisor
  2116  0641  3000               	movlw	0
  2117  0642  00A7               	movwf	___lwdiv@divisor+1
  2118  0643  0830               	movf	divide@mil,w
  2119  0644  0084               	movwf	4
  2120  0645  0800               	movf	0,w
  2121  0646  00B4               	movwf	??_divide
  2122  0647  01B5               	clrf	??_divide+1
  2123  0648  0834               	movf	??_divide,w
  2124  0649  00A0               	movwf	___wmul@multiplier
  2125  064A  0835               	movf	??_divide+1,w
  2126  064B  00A1               	movwf	___wmul@multiplier+1
  2127  064C  3018               	movlw	24
  2128  064D  00A2               	movwf	___wmul@multiplicand
  2129  064E  30FC               	movlw	252
  2130  064F  00A3               	movwf	___wmul@multiplicand+1
  2131  0650  120A  158A  242A  120A  118A  	fcall	___wmul
  2132  0655  1283               	bcf	3,5	;RP0=0, select bank0
  2133  0656  1303               	bcf	3,6	;RP1=0, select bank0
  2134  0657  082E               	movf	divide@value,w
  2135  0658  0720               	addwf	?___wmul,w
  2136  0659  00A8               	movwf	___lwdiv@dividend
  2137  065A  082F               	movf	divide@value+1,w
  2138  065B  1803               	skipnc
  2139  065C  0A2F               	incf	divide@value+1,w
  2140  065D  0721               	addwf	?___wmul+1,w
  2141  065E  00A9               	movwf	___lwdiv@dividend+1
  2142  065F  120A  118A  27B0  120A  118A  	fcall	___lwdiv
  2143  0664  1283               	bcf	3,5	;RP0=0, select bank0
  2144  0665  1303               	bcf	3,6	;RP1=0, select bank0
  2145  0666  0826               	movf	?___lwdiv,w
  2146  0667  00B6               	movwf	??_divide+2
  2147  0668  0831               	movf	divide@cent,w
  2148  0669  0084               	movwf	4
  2149  066A  0836               	movf	??_divide+2,w
  2150  066B  1383               	bcf	3,7	;select IRP bank0
  2151  066C  0080               	movwf	0
  2152                           
  2153                           ;main.c: 199:     *dec=(value-1000*(int)*mil-100*(int)*cent)/10;
  2154  066D  300A               	movlw	10
  2155  066E  00A6               	movwf	___lwdiv@divisor
  2156  066F  3000               	movlw	0
  2157  0670  00A7               	movwf	___lwdiv@divisor+1
  2158  0671  0830               	movf	divide@mil,w
  2159  0672  0084               	movwf	4
  2160  0673  0800               	movf	0,w
  2161  0674  00B4               	movwf	??_divide
  2162  0675  01B5               	clrf	??_divide+1
  2163  0676  0834               	movf	??_divide,w
  2164  0677  00A0               	movwf	___wmul@multiplier
  2165  0678  0835               	movf	??_divide+1,w
  2166  0679  00A1               	movwf	___wmul@multiplier+1
  2167  067A  3018               	movlw	24
  2168  067B  00A2               	movwf	___wmul@multiplicand
  2169  067C  30FC               	movlw	252
  2170  067D  00A3               	movwf	___wmul@multiplicand+1
  2171  067E  120A  158A  242A  120A  118A  	fcall	___wmul
  2172  0683  1283               	bcf	3,5	;RP0=0, select bank0
  2173  0684  1303               	bcf	3,6	;RP1=0, select bank0
  2174  0685  0820               	movf	?___wmul,w
  2175  0686  00B6               	movwf	??_divide+2
  2176  0687  0821               	movf	?___wmul+1,w
  2177  0688  00B7               	movwf	??_divide+3
  2178  0689  0831               	movf	divide@cent,w
  2179  068A  0084               	movwf	4
  2180  068B  1383               	bcf	3,7	;select IRP bank0
  2181  068C  0800               	movf	0,w
  2182  068D  00B8               	movwf	??_divide+4
  2183  068E  01B9               	clrf	??_divide+5
  2184  068F  0838               	movf	??_divide+4,w
  2185  0690  00A0               	movwf	___wmul@multiplier
  2186  0691  0839               	movf	??_divide+5,w
  2187  0692  00A1               	movwf	___wmul@multiplier+1
  2188  0693  309C               	movlw	156
  2189  0694  00A2               	movwf	___wmul@multiplicand
  2190  0695  30FF               	movlw	255
  2191  0696  00A3               	movwf	___wmul@multiplicand+1
  2192  0697  120A  158A  242A  120A  118A  	fcall	___wmul
  2193  069C  1283               	bcf	3,5	;RP0=0, select bank0
  2194  069D  1303               	bcf	3,6	;RP1=0, select bank0
  2195  069E  0820               	movf	?___wmul,w
  2196  069F  0736               	addwf	??_divide+2,w
  2197  06A0  00BA               	movwf	??_divide+6
  2198  06A1  0821               	movf	?___wmul+1,w
  2199  06A2  1803               	skipnc
  2200  06A3  0A21               	incf	?___wmul+1,w
  2201  06A4  0737               	addwf	??_divide+3,w
  2202  06A5  00BB               	movwf	??_divide+7
  2203  06A6  082E               	movf	divide@value,w
  2204  06A7  073A               	addwf	??_divide+6,w
  2205  06A8  00A8               	movwf	___lwdiv@dividend
  2206  06A9  082F               	movf	divide@value+1,w
  2207  06AA  1803               	skipnc
  2208  06AB  0A2F               	incf	divide@value+1,w
  2209  06AC  073B               	addwf	??_divide+7,w
  2210  06AD  00A9               	movwf	___lwdiv@dividend+1
  2211  06AE  120A  118A  27B0  120A  118A  	fcall	___lwdiv
  2212  06B3  1283               	bcf	3,5	;RP0=0, select bank0
  2213  06B4  1303               	bcf	3,6	;RP1=0, select bank0
  2214  06B5  0826               	movf	?___lwdiv,w
  2215  06B6  00BC               	movwf	??_divide+8
  2216  06B7  0832               	movf	divide@dec,w
  2217  06B8  0084               	movwf	4
  2218  06B9  083C               	movf	??_divide+8,w
  2219  06BA  1383               	bcf	3,7	;select IRP bank0
  2220  06BB  0080               	movwf	0
  2221                           
  2222                           ;main.c: 200:     *unit=value-1000*(int)*mil-100*(int)*cent-10*(int)*dec;
  2223  06BC  3018               	movlw	24
  2224  06BD  00B4               	movwf	??_divide
  2225  06BE  0834               	movf	??_divide,w
  2226  06BF  00A0               	movwf	___bmul@multiplicand
  2227  06C0  0830               	movf	divide@mil,w
  2228  06C1  0084               	movwf	4
  2229  06C2  0800               	movf	0,w
  2230  06C3  120A  158A  23D2  120A  118A  	fcall	___bmul
  2231  06C8  1283               	bcf	3,5	;RP0=0, select bank0
  2232  06C9  1303               	bcf	3,6	;RP1=0, select bank0
  2233  06CA  00B5               	movwf	??_divide+1
  2234  06CB  309C               	movlw	156
  2235  06CC  00B6               	movwf	??_divide+2
  2236  06CD  0836               	movf	??_divide+2,w
  2237  06CE  00A0               	movwf	___bmul@multiplicand
  2238  06CF  0831               	movf	divide@cent,w
  2239  06D0  0084               	movwf	4
  2240  06D1  1383               	bcf	3,7	;select IRP bank0
  2241  06D2  0800               	movf	0,w
  2242  06D3  120A  158A  23D2  120A  118A  	fcall	___bmul
  2243  06D8  1283               	bcf	3,5	;RP0=0, select bank0
  2244  06D9  1303               	bcf	3,6	;RP1=0, select bank0
  2245  06DA  00B7               	movwf	??_divide+3
  2246  06DB  30F6               	movlw	246
  2247  06DC  00B8               	movwf	??_divide+4
  2248  06DD  0838               	movf	??_divide+4,w
  2249  06DE  00A0               	movwf	___bmul@multiplicand
  2250  06DF  0832               	movf	divide@dec,w
  2251  06E0  0084               	movwf	4
  2252  06E1  1383               	bcf	3,7	;select IRP bank0
  2253  06E2  0800               	movf	0,w
  2254  06E3  120A  158A  23D2  120A  118A  	fcall	___bmul
  2255  06E8  1283               	bcf	3,5	;RP0=0, select bank0
  2256  06E9  1303               	bcf	3,6	;RP1=0, select bank0
  2257  06EA  0737               	addwf	??_divide+3,w
  2258  06EB  0735               	addwf	??_divide+1,w
  2259  06EC  072E               	addwf	divide@value,w
  2260  06ED  00B9               	movwf	??_divide+5
  2261  06EE  0833               	movf	divide@unit,w
  2262  06EF  0084               	movwf	4
  2263  06F0  0839               	movf	??_divide+5,w
  2264  06F1  1383               	bcf	3,7	;select IRP bank0
  2265  06F2  0080               	movwf	0
  2266  06F3                     l129:
  2267  06F3  0008               	return
  2268  06F4                     __end_of_divide:
  2269                           
  2270                           	psect	text6
  2271  0C2A                     __ptext6:	
  2272 ;; *************** function ___wmul *****************
  2273 ;; Defined at:
  2274 ;;		line 15 in file "C:\Program Files\Microchip\xc8\v2.32\pic\sources\c90\common\Umul16.c"
  2275 ;; Parameters:    Size  Location     Type
  2276 ;;  multiplier      2    0[BANK0 ] unsigned int 
  2277 ;;  multiplicand    2    2[BANK0 ] unsigned int 
  2278 ;; Auto vars:     Size  Location     Type
  2279 ;;  product         2    4[BANK0 ] unsigned int 
  2280 ;; Return value:  Size  Location     Type
  2281 ;;                  2    0[BANK0 ] unsigned int 
  2282 ;; Registers used:
  2283 ;;		wreg, status,2, status,0
  2284 ;; Tracked objects:
  2285 ;;		On entry : 0/0
  2286 ;;		On exit  : 0/0
  2287 ;;		Unchanged: 0/0
  2288 ;; Data sizes:     COMMON   BANK0   BANK1   BANK3   BANK2
  2289 ;;      Params:         0       4       0       0       0
  2290 ;;      Locals:         0       2       0       0       0
  2291 ;;      Temps:          0       0       0       0       0
  2292 ;;      Totals:         0       6       0       0       0
  2293 ;;Total ram usage:        6 bytes
  2294 ;; Hardware stack levels used: 1
  2295 ;; Hardware stack levels required when called: 2
  2296 ;; This function calls:
  2297 ;;		Nothing
  2298 ;; This function is called by:
  2299 ;;		_divide
  2300 ;; This function uses a non-reentrant model
  2301 ;;
  2302                           
  2303                           
  2304                           ;psect for function ___wmul
  2305  0C2A                     ___wmul:
  2306  0C2A                     l1532:	
  2307                           ;incstack = 0
  2308                           ; Regs used in ___wmul: [wreg+status,2+status,0]
  2309                           
  2310  0C2A  1283               	bcf	3,5	;RP0=0, select bank0
  2311  0C2B  1303               	bcf	3,6	;RP1=0, select bank0
  2312  0C2C  01A4               	clrf	___wmul@product
  2313  0C2D  01A5               	clrf	___wmul@product+1
  2314  0C2E                     l1534:
  2315  0C2E  1C20               	btfss	___wmul@multiplier,0
  2316  0C2F  2C31               	goto	u1231
  2317  0C30  2C32               	goto	u1230
  2318  0C31                     u1231:
  2319  0C31  2C38               	goto	l290
  2320  0C32                     u1230:
  2321  0C32                     l1536:
  2322  0C32  0822               	movf	___wmul@multiplicand,w
  2323  0C33  07A4               	addwf	___wmul@product,f
  2324  0C34  1803               	skipnc
  2325  0C35  0AA5               	incf	___wmul@product+1,f
  2326  0C36  0823               	movf	___wmul@multiplicand+1,w
  2327  0C37  07A5               	addwf	___wmul@product+1,f
  2328  0C38                     l290:
  2329  0C38  3001               	movlw	1
  2330  0C39                     u1245:
  2331  0C39  1003               	clrc
  2332  0C3A  0DA2               	rlf	___wmul@multiplicand,f
  2333  0C3B  0DA3               	rlf	___wmul@multiplicand+1,f
  2334  0C3C  3EFF               	addlw	-1
  2335  0C3D  1D03               	skipz
  2336  0C3E  2C39               	goto	u1245
  2337  0C3F                     l1538:
  2338  0C3F  3001               	movlw	1
  2339  0C40                     u1255:
  2340  0C40  1003               	clrc
  2341  0C41  0CA1               	rrf	___wmul@multiplier+1,f
  2342  0C42  0CA0               	rrf	___wmul@multiplier,f
  2343  0C43  3EFF               	addlw	-1
  2344  0C44  1D03               	skipz
  2345  0C45  2C40               	goto	u1255
  2346  0C46                     l1540:
  2347  0C46  0820               	movf	___wmul@multiplier,w
  2348  0C47  0421               	iorwf	___wmul@multiplier+1,w
  2349  0C48  1D03               	btfss	3,2
  2350  0C49  2C4B               	goto	u1261
  2351  0C4A  2C4C               	goto	u1260
  2352  0C4B                     u1261:
  2353  0C4B  2C2E               	goto	l1534
  2354  0C4C                     u1260:
  2355  0C4C                     l1542:
  2356  0C4C  0825               	movf	___wmul@product+1,w
  2357  0C4D  00A1               	movwf	?___wmul+1
  2358  0C4E  0824               	movf	___wmul@product,w
  2359  0C4F  00A0               	movwf	?___wmul
  2360  0C50                     l292:
  2361  0C50  0008               	return
  2362  0C51                     __end_of___wmul:
  2363                           
  2364                           	psect	text7
  2365  07B0                     __ptext7:	
  2366 ;; *************** function ___lwdiv *****************
  2367 ;; Defined at:
  2368 ;;		line 5 in file "C:\Program Files\Microchip\xc8\v2.32\pic\sources\c90\common\lwdiv.c"
  2369 ;; Parameters:    Size  Location     Type
  2370 ;;  divisor         2    6[BANK0 ] unsigned int 
  2371 ;;  dividend        2    8[BANK0 ] unsigned int 
  2372 ;; Auto vars:     Size  Location     Type
  2373 ;;  quotient        2   11[BANK0 ] unsigned int 
  2374 ;;  counter         1   13[BANK0 ] unsigned char 
  2375 ;; Return value:  Size  Location     Type
  2376 ;;                  2    6[BANK0 ] unsigned int 
  2377 ;; Registers used:
  2378 ;;		wreg, status,2, status,0
  2379 ;; Tracked objects:
  2380 ;;		On entry : 0/0
  2381 ;;		On exit  : 0/0
  2382 ;;		Unchanged: 0/0
  2383 ;; Data sizes:     COMMON   BANK0   BANK1   BANK3   BANK2
  2384 ;;      Params:         0       4       0       0       0
  2385 ;;      Locals:         0       3       0       0       0
  2386 ;;      Temps:          0       1       0       0       0
  2387 ;;      Totals:         0       8       0       0       0
  2388 ;;Total ram usage:        8 bytes
  2389 ;; Hardware stack levels used: 1
  2390 ;; Hardware stack levels required when called: 2
  2391 ;; This function calls:
  2392 ;;		Nothing
  2393 ;; This function is called by:
  2394 ;;		_divide
  2395 ;; This function uses a non-reentrant model
  2396 ;;
  2397                           
  2398                           
  2399                           ;psect for function ___lwdiv
  2400  07B0                     ___lwdiv:
  2401  07B0                     l1560:	
  2402                           ;incstack = 0
  2403                           ; Regs used in ___lwdiv: [wreg+status,2+status,0]
  2404                           
  2405  07B0  1283               	bcf	3,5	;RP0=0, select bank0
  2406  07B1  1303               	bcf	3,6	;RP1=0, select bank0
  2407  07B2  01AB               	clrf	___lwdiv@quotient
  2408  07B3  01AC               	clrf	___lwdiv@quotient+1
  2409  07B4                     l1562:
  2410  07B4  0826               	movf	___lwdiv@divisor,w
  2411  07B5  0427               	iorwf	___lwdiv@divisor+1,w
  2412  07B6  1903               	btfsc	3,2
  2413  07B7  2FB9               	goto	u1291
  2414  07B8  2FBA               	goto	u1290
  2415  07B9                     u1291:
  2416  07B9  2FF1               	goto	l1582
  2417  07BA                     u1290:
  2418  07BA                     l1564:
  2419  07BA  01AD               	clrf	___lwdiv@counter
  2420  07BB  0AAD               	incf	___lwdiv@counter,f
  2421  07BC  2FC8               	goto	l1570
  2422  07BD                     l1566:
  2423  07BD  3001               	movlw	1
  2424  07BE                     u1305:
  2425  07BE  1003               	clrc
  2426  07BF  0DA6               	rlf	___lwdiv@divisor,f
  2427  07C0  0DA7               	rlf	___lwdiv@divisor+1,f
  2428  07C1  3EFF               	addlw	-1
  2429  07C2  1D03               	skipz
  2430  07C3  2FBE               	goto	u1305
  2431  07C4                     l1568:
  2432  07C4  3001               	movlw	1
  2433  07C5  00AA               	movwf	??___lwdiv
  2434  07C6  082A               	movf	??___lwdiv,w
  2435  07C7  07AD               	addwf	___lwdiv@counter,f
  2436  07C8                     l1570:
  2437  07C8  1FA7               	btfss	___lwdiv@divisor+1,7
  2438  07C9  2FCB               	goto	u1311
  2439  07CA  2FCC               	goto	u1310
  2440  07CB                     u1311:
  2441  07CB  2FBD               	goto	l1566
  2442  07CC                     u1310:
  2443  07CC                     l1572:
  2444  07CC  3001               	movlw	1
  2445  07CD                     u1325:
  2446  07CD  1003               	clrc
  2447  07CE  0DAB               	rlf	___lwdiv@quotient,f
  2448  07CF  0DAC               	rlf	___lwdiv@quotient+1,f
  2449  07D0  3EFF               	addlw	-1
  2450  07D1  1D03               	skipz
  2451  07D2  2FCD               	goto	u1325
  2452  07D3  0827               	movf	___lwdiv@divisor+1,w
  2453  07D4  0229               	subwf	___lwdiv@dividend+1,w
  2454  07D5  1D03               	skipz
  2455  07D6  2FD9               	goto	u1335
  2456  07D7  0826               	movf	___lwdiv@divisor,w
  2457  07D8  0228               	subwf	___lwdiv@dividend,w
  2458  07D9                     u1335:
  2459  07D9  1C03               	skipc
  2460  07DA  2FDC               	goto	u1331
  2461  07DB  2FDD               	goto	u1330
  2462  07DC                     u1331:
  2463  07DC  2FE4               	goto	l1578
  2464  07DD                     u1330:
  2465  07DD                     l1574:
  2466  07DD  0826               	movf	___lwdiv@divisor,w
  2467  07DE  02A8               	subwf	___lwdiv@dividend,f
  2468  07DF  0827               	movf	___lwdiv@divisor+1,w
  2469  07E0  1C03               	skipc
  2470  07E1  03A9               	decf	___lwdiv@dividend+1,f
  2471  07E2  02A9               	subwf	___lwdiv@dividend+1,f
  2472  07E3                     l1576:
  2473  07E3  142B               	bsf	___lwdiv@quotient,0
  2474  07E4                     l1578:
  2475  07E4  3001               	movlw	1
  2476  07E5                     u1345:
  2477  07E5  1003               	clrc
  2478  07E6  0CA7               	rrf	___lwdiv@divisor+1,f
  2479  07E7  0CA6               	rrf	___lwdiv@divisor,f
  2480  07E8  3EFF               	addlw	-1
  2481  07E9  1D03               	skipz
  2482  07EA  2FE5               	goto	u1345
  2483  07EB                     l1580:
  2484  07EB  3001               	movlw	1
  2485  07EC  02AD               	subwf	___lwdiv@counter,f
  2486  07ED  1D03               	btfss	3,2
  2487  07EE  2FF0               	goto	u1351
  2488  07EF  2FF1               	goto	u1350
  2489  07F0                     u1351:
  2490  07F0  2FCC               	goto	l1572
  2491  07F1                     u1350:
  2492  07F1                     l1582:
  2493  07F1  082C               	movf	___lwdiv@quotient+1,w
  2494  07F2  00A7               	movwf	?___lwdiv+1
  2495  07F3  082B               	movf	___lwdiv@quotient,w
  2496  07F4  00A6               	movwf	?___lwdiv
  2497  07F5                     l562:
  2498  07F5  0008               	return
  2499  07F6                     __end_of___lwdiv:
  2500                           
  2501                           	psect	text8
  2502  0BD2                     __ptext8:	
  2503 ;; *************** function ___bmul *****************
  2504 ;; Defined at:
  2505 ;;		line 4 in file "C:\Program Files\Microchip\xc8\v2.32\pic\sources\c90\common\Umul8.c"
  2506 ;; Parameters:    Size  Location     Type
  2507 ;;  multiplier      1    wreg     unsigned char 
  2508 ;;  multiplicand    1    0[BANK0 ] unsigned char 
  2509 ;; Auto vars:     Size  Location     Type
  2510 ;;  multiplier      1    3[BANK0 ] unsigned char 
  2511 ;;  product         1    2[BANK0 ] unsigned char 
  2512 ;; Return value:  Size  Location     Type
  2513 ;;                  1    wreg      unsigned char 
  2514 ;; Registers used:
  2515 ;;		wreg, status,2, status,0
  2516 ;; Tracked objects:
  2517 ;;		On entry : 0/0
  2518 ;;		On exit  : 0/0
  2519 ;;		Unchanged: 0/0
  2520 ;; Data sizes:     COMMON   BANK0   BANK1   BANK3   BANK2
  2521 ;;      Params:         0       1       0       0       0
  2522 ;;      Locals:         0       2       0       0       0
  2523 ;;      Temps:          0       1       0       0       0
  2524 ;;      Totals:         0       4       0       0       0
  2525 ;;Total ram usage:        4 bytes
  2526 ;; Hardware stack levels used: 1
  2527 ;; Hardware stack levels required when called: 2
  2528 ;; This function calls:
  2529 ;;		Nothing
  2530 ;; This function is called by:
  2531 ;;		_divide
  2532 ;; This function uses a non-reentrant model
  2533 ;;
  2534                           
  2535                           
  2536                           ;psect for function ___bmul
  2537  0BD2                     ___bmul:
  2538                           
  2539                           ;incstack = 0
  2540                           ; Regs used in ___bmul: [wreg+status,2+status,0]
  2541                           ;___bmul@multiplier stored from wreg
  2542  0BD2  1283               	bcf	3,5	;RP0=0, select bank0
  2543  0BD3  1303               	bcf	3,6	;RP1=0, select bank0
  2544  0BD4  00A3               	movwf	___bmul@multiplier
  2545  0BD5                     l1546:
  2546  0BD5  01A2               	clrf	___bmul@product
  2547  0BD6                     l1548:
  2548  0BD6  1C23               	btfss	___bmul@multiplier,0
  2549  0BD7  2BD9               	goto	u1271
  2550  0BD8  2BDA               	goto	u1270
  2551  0BD9                     u1271:
  2552  0BD9  2BDE               	goto	l1552
  2553  0BDA                     u1270:
  2554  0BDA                     l1550:
  2555  0BDA  0820               	movf	___bmul@multiplicand,w
  2556  0BDB  00A1               	movwf	??___bmul
  2557  0BDC  0821               	movf	??___bmul,w
  2558  0BDD  07A2               	addwf	___bmul@product,f
  2559  0BDE                     l1552:
  2560  0BDE  1003               	clrc
  2561  0BDF  0DA0               	rlf	___bmul@multiplicand,f
  2562  0BE0                     l1554:
  2563  0BE0  1003               	clrc
  2564  0BE1  0CA3               	rrf	___bmul@multiplier,f
  2565  0BE2  0823               	movf	___bmul@multiplier,w
  2566  0BE3  1D03               	btfss	3,2
  2567  0BE4  2BE6               	goto	u1281
  2568  0BE5  2BE7               	goto	u1280
  2569  0BE6                     u1281:
  2570  0BE6  2BD6               	goto	l1548
  2571  0BE7                     u1280:
  2572  0BE7                     l1556:
  2573  0BE7  0822               	movf	___bmul@product,w
  2574  0BE8                     l316:
  2575  0BE8  0008               	return
  2576  0BE9                     __end_of___bmul:
  2577                           
  2578                           	psect	text9
  2579  06F4                     __ptext9:	
  2580 ;; *************** function ___xxtofl *****************
  2581 ;; Defined at:
  2582 ;;		line 10 in file "C:\Program Files\Microchip\xc8\v2.32\pic\sources\c90\common\xxtofl.c"
  2583 ;; Parameters:    Size  Location     Type
  2584 ;;  sign            1    wreg     unsigned char 
  2585 ;;  val             4    0[BANK0 ] long 
  2586 ;; Auto vars:     Size  Location     Type
  2587 ;;  sign            1    8[BANK0 ] unsigned char 
  2588 ;;  arg             4   10[BANK0 ] unsigned long 
  2589 ;;  exp             1    9[BANK0 ] unsigned char 
  2590 ;; Return value:  Size  Location     Type
  2591 ;;                  4    0[BANK0 ] unsigned char 
  2592 ;; Registers used:
  2593 ;;		wreg, status,2, status,0
  2594 ;; Tracked objects:
  2595 ;;		On entry : 0/0
  2596 ;;		On exit  : 0/0
  2597 ;;		Unchanged: 0/0
  2598 ;; Data sizes:     COMMON   BANK0   BANK1   BANK3   BANK2
  2599 ;;      Params:         0       4       0       0       0
  2600 ;;      Locals:         0       6       0       0       0
  2601 ;;      Temps:          0       4       0       0       0
  2602 ;;      Totals:         0      14       0       0       0
  2603 ;;Total ram usage:       14 bytes
  2604 ;; Hardware stack levels used: 1
  2605 ;; Hardware stack levels required when called: 2
  2606 ;; This function calls:
  2607 ;;		Nothing
  2608 ;; This function is called by:
  2609 ;;		_main
  2610 ;; This function uses a non-reentrant model
  2611 ;;
  2612                           
  2613                           
  2614                           ;psect for function ___xxtofl
  2615  06F4                     ___xxtofl:
  2616                           
  2617                           ;incstack = 0
  2618                           ; Regs used in ___xxtofl: [wreg+status,2+status,0]
  2619                           ;___xxtofl@sign stored from wreg
  2620  06F4  1283               	bcf	3,5	;RP0=0, select bank0
  2621  06F5  1303               	bcf	3,6	;RP1=0, select bank0
  2622  06F6  00A8               	movwf	___xxtofl@sign
  2623  06F7                     l1998:
  2624  06F7  0828               	movf	___xxtofl@sign,w
  2625  06F8  1903               	btfsc	3,2
  2626  06F9  2EFB               	goto	u2201
  2627  06FA  2EFC               	goto	u2200
  2628  06FB                     u2201:
  2629  06FB  2F10               	goto	l2004
  2630  06FC                     u2200:
  2631  06FC                     l2000:
  2632  06FC  1FA3               	btfss	___xxtofl@val+3,7
  2633  06FD  2EFF               	goto	u2211
  2634  06FE  2F00               	goto	u2210
  2635  06FF                     u2211:
  2636  06FF  2F10               	goto	l2004
  2637  0700                     u2210:
  2638  0700                     l2002:
  2639  0700  0920               	comf	___xxtofl@val,w
  2640  0701  00AA               	movwf	___xxtofl@arg
  2641  0702  0921               	comf	___xxtofl@val+1,w
  2642  0703  00AB               	movwf	___xxtofl@arg+1
  2643  0704  0922               	comf	___xxtofl@val+2,w
  2644  0705  00AC               	movwf	___xxtofl@arg+2
  2645  0706  0923               	comf	___xxtofl@val+3,w
  2646  0707  00AD               	movwf	___xxtofl@arg+3
  2647  0708  0AAA               	incf	___xxtofl@arg,f
  2648  0709  1903               	skipnz
  2649  070A  0AAB               	incf	___xxtofl@arg+1,f
  2650  070B  1903               	skipnz
  2651  070C  0AAC               	incf	___xxtofl@arg+2,f
  2652  070D  1903               	skipnz
  2653  070E  0AAD               	incf	___xxtofl@arg+3,f
  2654  070F  2F18               	goto	l723
  2655  0710                     l2004:
  2656  0710  0823               	movf	___xxtofl@val+3,w
  2657  0711  00AD               	movwf	___xxtofl@arg+3
  2658  0712  0822               	movf	___xxtofl@val+2,w
  2659  0713  00AC               	movwf	___xxtofl@arg+2
  2660  0714  0821               	movf	___xxtofl@val+1,w
  2661  0715  00AB               	movwf	___xxtofl@arg+1
  2662  0716  0820               	movf	___xxtofl@val,w
  2663  0717  00AA               	movwf	___xxtofl@arg
  2664  0718                     l723:
  2665  0718  0823               	movf	___xxtofl@val+3,w
  2666  0719  0422               	iorwf	___xxtofl@val+2,w
  2667  071A  0421               	iorwf	___xxtofl@val+1,w
  2668  071B  0420               	iorwf	___xxtofl@val,w
  2669  071C  1D03               	skipz
  2670  071D  2F1F               	goto	u2221
  2671  071E  2F20               	goto	u2220
  2672  071F                     u2221:
  2673  071F  2F29               	goto	l2010
  2674  0720                     u2220:
  2675  0720                     l2006:
  2676  0720  3000               	movlw	0
  2677  0721  00A3               	movwf	?___xxtofl+3
  2678  0722  3000               	movlw	0
  2679  0723  00A2               	movwf	?___xxtofl+2
  2680  0724  3000               	movlw	0
  2681  0725  00A1               	movwf	?___xxtofl+1
  2682  0726  3000               	movlw	0
  2683  0727  00A0               	movwf	?___xxtofl
  2684  0728  2FAF               	goto	l725
  2685  0729                     l2010:
  2686  0729  3096               	movlw	150
  2687  072A  00A4               	movwf	??___xxtofl
  2688  072B  0824               	movf	??___xxtofl,w
  2689  072C  00A9               	movwf	___xxtofl@exp
  2690  072D  2F3B               	goto	l2014
  2691  072E                     l2012:
  2692  072E  3001               	movlw	1
  2693  072F  00A4               	movwf	??___xxtofl
  2694  0730  0824               	movf	??___xxtofl,w
  2695  0731  07A9               	addwf	___xxtofl@exp,f
  2696  0732  3001               	movlw	1
  2697  0733                     u2235:
  2698  0733  1003               	clrc
  2699  0734  0CAD               	rrf	___xxtofl@arg+3,f
  2700  0735  0CAC               	rrf	___xxtofl@arg+2,f
  2701  0736  0CAB               	rrf	___xxtofl@arg+1,f
  2702  0737  0CAA               	rrf	___xxtofl@arg,f
  2703  0738  3EFF               	addlw	-1
  2704  0739  1D03               	skipz
  2705  073A  2F33               	goto	u2235
  2706  073B                     l2014:
  2707  073B  30FE               	movlw	254
  2708  073C  052D               	andwf	___xxtofl@arg+3,w
  2709  073D  1D03               	btfss	3,2
  2710  073E  2F40               	goto	u2241
  2711  073F  2F41               	goto	u2240
  2712  0740                     u2241:
  2713  0740  2F2E               	goto	l2012
  2714  0741                     u2240:
  2715  0741  2F5D               	goto	l729
  2716  0742                     l2016:
  2717  0742  3001               	movlw	1
  2718  0743  00A4               	movwf	??___xxtofl
  2719  0744  0824               	movf	??___xxtofl,w
  2720  0745  07A9               	addwf	___xxtofl@exp,f
  2721  0746                     l2018:
  2722  0746  3001               	movlw	1
  2723  0747  07AA               	addwf	___xxtofl@arg,f
  2724  0748  3000               	movlw	0
  2725  0749  1803               	skipnc
  2726  074A  3001               	movlw	1
  2727  074B  07AB               	addwf	___xxtofl@arg+1,f
  2728  074C  3000               	movlw	0
  2729  074D  1803               	skipnc
  2730  074E  3001               	movlw	1
  2731  074F  07AC               	addwf	___xxtofl@arg+2,f
  2732  0750  3000               	movlw	0
  2733  0751  1803               	skipnc
  2734  0752  3001               	movlw	1
  2735  0753  07AD               	addwf	___xxtofl@arg+3,f
  2736  0754                     l2020:
  2737  0754  3001               	movlw	1
  2738  0755                     u2255:
  2739  0755  1003               	clrc
  2740  0756  0CAD               	rrf	___xxtofl@arg+3,f
  2741  0757  0CAC               	rrf	___xxtofl@arg+2,f
  2742  0758  0CAB               	rrf	___xxtofl@arg+1,f
  2743  0759  0CAA               	rrf	___xxtofl@arg,f
  2744  075A  3EFF               	addlw	-1
  2745  075B  1D03               	skipz
  2746  075C  2F55               	goto	u2255
  2747  075D                     l729:
  2748  075D  30FF               	movlw	255
  2749  075E  052D               	andwf	___xxtofl@arg+3,w
  2750  075F  1D03               	btfss	3,2
  2751  0760  2F62               	goto	u2261
  2752  0761  2F63               	goto	u2260
  2753  0762                     u2261:
  2754  0762  2F42               	goto	l2016
  2755  0763                     u2260:
  2756  0763  2F6F               	goto	l2024
  2757  0764                     l2022:
  2758  0764  3001               	movlw	1
  2759  0765  02A9               	subwf	___xxtofl@exp,f
  2760  0766  3001               	movlw	1
  2761  0767  00A4               	movwf	??___xxtofl
  2762  0768                     u2275:
  2763  0768  1003               	clrc
  2764  0769  0DAA               	rlf	___xxtofl@arg,f
  2765  076A  0DAB               	rlf	___xxtofl@arg+1,f
  2766  076B  0DAC               	rlf	___xxtofl@arg+2,f
  2767  076C  0DAD               	rlf	___xxtofl@arg+3,f
  2768  076D  0BA4               	decfsz	??___xxtofl,f
  2769  076E  2F68               	goto	u2275
  2770  076F                     l2024:
  2771  076F  1BAC               	btfsc	___xxtofl@arg+2,7
  2772  0770  2F72               	goto	u2281
  2773  0771  2F73               	goto	u2280
  2774  0772                     u2281:
  2775  0772  2F79               	goto	l736
  2776  0773                     u2280:
  2777  0773                     l2026:
  2778  0773  3002               	movlw	2
  2779  0774  0229               	subwf	___xxtofl@exp,w
  2780  0775  1803               	skipnc
  2781  0776  2F78               	goto	u2291
  2782  0777  2F79               	goto	u2290
  2783  0778                     u2291:
  2784  0778  2F64               	goto	l2022
  2785  0779                     u2290:
  2786  0779                     l736:
  2787  0779  1829               	btfsc	___xxtofl@exp,0
  2788  077A  2F7C               	goto	u2301
  2789  077B  2F7D               	goto	u2300
  2790  077C                     u2301:
  2791  077C  2F85               	goto	l737
  2792  077D                     u2300:
  2793  077D                     l2028:
  2794  077D  30FF               	movlw	255
  2795  077E  05AA               	andwf	___xxtofl@arg,f
  2796  077F  30FF               	movlw	255
  2797  0780  05AB               	andwf	___xxtofl@arg+1,f
  2798  0781  307F               	movlw	127
  2799  0782  05AC               	andwf	___xxtofl@arg+2,f
  2800  0783  30FF               	movlw	255
  2801  0784  05AD               	andwf	___xxtofl@arg+3,f
  2802  0785                     l737:
  2803  0785  1003               	clrc
  2804  0786  0CA9               	rrf	___xxtofl@exp,f
  2805  0787                     l2030:
  2806  0787  0829               	movf	___xxtofl@exp,w
  2807  0788  00A4               	movwf	??___xxtofl
  2808  0789  01A5               	clrf	??___xxtofl+1
  2809  078A  01A6               	clrf	??___xxtofl+2
  2810  078B  01A7               	clrf	??___xxtofl+3
  2811  078C  3018               	movlw	24
  2812  078D                     u2315:
  2813  078D  1003               	clrc
  2814  078E  0DA4               	rlf	??___xxtofl,f
  2815  078F  0DA5               	rlf	??___xxtofl+1,f
  2816  0790  0DA6               	rlf	??___xxtofl+2,f
  2817  0791  0DA7               	rlf	??___xxtofl+3,f
  2818  0792                     u2310:
  2819  0792  3EFF               	addlw	-1
  2820  0793  1D03               	skipz
  2821  0794  2F8D               	goto	u2315
  2822  0795  0824               	movf	??___xxtofl,w
  2823  0796  04AA               	iorwf	___xxtofl@arg,f
  2824  0797  0825               	movf	??___xxtofl+1,w
  2825  0798  04AB               	iorwf	___xxtofl@arg+1,f
  2826  0799  0826               	movf	??___xxtofl+2,w
  2827  079A  04AC               	iorwf	___xxtofl@arg+2,f
  2828  079B  0827               	movf	??___xxtofl+3,w
  2829  079C  04AD               	iorwf	___xxtofl@arg+3,f
  2830  079D                     l2032:
  2831  079D  0828               	movf	___xxtofl@sign,w
  2832  079E  1903               	btfsc	3,2
  2833  079F  2FA1               	goto	u2321
  2834  07A0  2FA2               	goto	u2320
  2835  07A1                     u2321:
  2836  07A1  2FA7               	goto	l2038
  2837  07A2                     u2320:
  2838  07A2                     l2034:
  2839  07A2  1FA3               	btfss	___xxtofl@val+3,7
  2840  07A3  2FA5               	goto	u2331
  2841  07A4  2FA6               	goto	u2330
  2842  07A5                     u2331:
  2843  07A5  2FA7               	goto	l2038
  2844  07A6                     u2330:
  2845  07A6                     l2036:
  2846  07A6  17AD               	bsf	___xxtofl@arg+3,7
  2847  07A7                     l2038:
  2848  07A7  082D               	movf	___xxtofl@arg+3,w
  2849  07A8  00A3               	movwf	?___xxtofl+3
  2850  07A9  082C               	movf	___xxtofl@arg+2,w
  2851  07AA  00A2               	movwf	?___xxtofl+2
  2852  07AB  082B               	movf	___xxtofl@arg+1,w
  2853  07AC  00A1               	movwf	?___xxtofl+1
  2854  07AD  082A               	movf	___xxtofl@arg,w
  2855  07AE  00A0               	movwf	?___xxtofl
  2856  07AF                     l725:
  2857  07AF  0008               	return
  2858  07B0                     __end_of___xxtofl:
  2859                           
  2860                           	psect	text10
  2861  0DA7                     __ptext10:	
  2862 ;; *************** function ___fltol *****************
  2863 ;; Defined at:
  2864 ;;		line 43 in file "C:\Program Files\Microchip\xc8\v2.32\pic\sources\c90\common\fltol.c"
  2865 ;; Parameters:    Size  Location     Type
  2866 ;;  f1              4   66[BANK0 ] unsigned char 
  2867 ;; Auto vars:     Size  Location     Type
  2868 ;;  exp1            1   76[BANK0 ] unsigned char 
  2869 ;;  sign1           1   75[BANK0 ] unsigned char 
  2870 ;; Return value:  Size  Location     Type
  2871 ;;                  4   66[BANK0 ] long 
  2872 ;; Registers used:
  2873 ;;		wreg, status,2, status,0
  2874 ;; Tracked objects:
  2875 ;;		On entry : 0/0
  2876 ;;		On exit  : 0/0
  2877 ;;		Unchanged: 0/0
  2878 ;; Data sizes:     COMMON   BANK0   BANK1   BANK3   BANK2
  2879 ;;      Params:         0       4       0       0       0
  2880 ;;      Locals:         0       2       0       0       0
  2881 ;;      Temps:          0       5       0       0       0
  2882 ;;      Totals:         0      11       0       0       0
  2883 ;;Total ram usage:       11 bytes
  2884 ;; Hardware stack levels used: 1
  2885 ;; Hardware stack levels required when called: 2
  2886 ;; This function calls:
  2887 ;;		Nothing
  2888 ;; This function is called by:
  2889 ;;		_main
  2890 ;; This function uses a non-reentrant model
  2891 ;;
  2892                           
  2893                           
  2894                           ;psect for function ___fltol
  2895  0DA7                     ___fltol:
  2896  0DA7                     l1680:	
  2897                           ;incstack = 0
  2898                           ; Regs used in ___fltol: [wreg+status,2+status,0]
  2899                           
  2900  0DA7  1003               	clrc
  2901  0DA8  1283               	bcf	3,5	;RP0=0, select bank0
  2902  0DA9  1303               	bcf	3,6	;RP1=0, select bank0
  2903  0DAA  0D64               	rlf	___fltol@f1+2,w
  2904  0DAB  0D65               	rlf	___fltol@f1+3,w
  2905  0DAC  00E6               	movwf	??___fltol
  2906  0DAD  0866               	movf	??___fltol,w
  2907  0DAE  00EC               	movwf	___fltol@exp1
  2908  0DAF  086C               	movf	___fltol@exp1,w
  2909  0DB0  1D03               	btfss	3,2
  2910  0DB1  2DB3               	goto	u1441
  2911  0DB2  2DB4               	goto	u1440
  2912  0DB3                     u1441:
  2913  0DB3  2DBD               	goto	l1686
  2914  0DB4                     u1440:
  2915  0DB4                     l1682:
  2916  0DB4  3000               	movlw	0
  2917  0DB5  00E5               	movwf	?___fltol+3
  2918  0DB6  3000               	movlw	0
  2919  0DB7  00E4               	movwf	?___fltol+2
  2920  0DB8  3000               	movlw	0
  2921  0DB9  00E3               	movwf	?___fltol+1
  2922  0DBA  3000               	movlw	0
  2923  0DBB  00E2               	movwf	?___fltol
  2924  0DBC  2E22               	goto	l476
  2925  0DBD                     l1686:
  2926  0DBD  0862               	movf	___fltol@f1,w
  2927  0DBE  00E6               	movwf	??___fltol
  2928  0DBF  0863               	movf	___fltol@f1+1,w
  2929  0DC0  00E7               	movwf	??___fltol+1
  2930  0DC1  0864               	movf	___fltol@f1+2,w
  2931  0DC2  00E8               	movwf	??___fltol+2
  2932  0DC3  0865               	movf	___fltol@f1+3,w
  2933  0DC4  00E9               	movwf	??___fltol+3
  2934  0DC5  301F               	movlw	31
  2935  0DC6                     u1455:
  2936  0DC6  1003               	clrc
  2937  0DC7  0CE9               	rrf	??___fltol+3,f
  2938  0DC8  0CE8               	rrf	??___fltol+2,f
  2939  0DC9  0CE7               	rrf	??___fltol+1,f
  2940  0DCA  0CE6               	rrf	??___fltol,f
  2941  0DCB                     u1450:
  2942  0DCB  3EFF               	addlw	-1
  2943  0DCC  1D03               	skipz
  2944  0DCD  2DC6               	goto	u1455
  2945  0DCE  0866               	movf	??___fltol,w
  2946  0DCF  00EA               	movwf	??___fltol+4
  2947  0DD0  086A               	movf	??___fltol+4,w
  2948  0DD1  00EB               	movwf	___fltol@sign1
  2949  0DD2                     l1688:
  2950  0DD2  17E4               	bsf	___fltol@f1+2,7
  2951  0DD3                     l1690:
  2952  0DD3  30FF               	movlw	255
  2953  0DD4  05E2               	andwf	___fltol@f1,f
  2954  0DD5  30FF               	movlw	255
  2955  0DD6  05E3               	andwf	___fltol@f1+1,f
  2956  0DD7  30FF               	movlw	255
  2957  0DD8  05E4               	andwf	___fltol@f1+2,f
  2958  0DD9  3000               	movlw	0
  2959  0DDA  05E5               	andwf	___fltol@f1+3,f
  2960  0DDB                     l1692:
  2961  0DDB  3096               	movlw	150
  2962  0DDC  02EC               	subwf	___fltol@exp1,f
  2963  0DDD                     l1694:
  2964  0DDD  1FEC               	btfss	___fltol@exp1,7
  2965  0DDE  2DE0               	goto	u1461
  2966  0DDF  2DE1               	goto	u1460
  2967  0DE0                     u1461:
  2968  0DE0  2DFB               	goto	l1704
  2969  0DE1                     u1460:
  2970  0DE1                     l1696:
  2971  0DE1  086C               	movf	___fltol@exp1,w
  2972  0DE2  3A80               	xorlw	128
  2973  0DE3  3E97               	addlw	151
  2974  0DE4  1803               	skipnc
  2975  0DE5  2DE7               	goto	u1471
  2976  0DE6  2DE8               	goto	u1470
  2977  0DE7                     u1471:
  2978  0DE7  2DE9               	goto	l1702
  2979  0DE8                     u1470:
  2980  0DE8  2DB4               	goto	l1682
  2981  0DE9                     l1702:
  2982  0DE9  3001               	movlw	1
  2983  0DEA                     u1485:
  2984  0DEA  1003               	clrc
  2985  0DEB  0CE5               	rrf	___fltol@f1+3,f
  2986  0DEC  0CE4               	rrf	___fltol@f1+2,f
  2987  0DED  0CE3               	rrf	___fltol@f1+1,f
  2988  0DEE  0CE2               	rrf	___fltol@f1,f
  2989  0DEF  3EFF               	addlw	-1
  2990  0DF0  1D03               	skipz
  2991  0DF1  2DEA               	goto	u1485
  2992  0DF2  3001               	movlw	1
  2993  0DF3  00E6               	movwf	??___fltol
  2994  0DF4  0866               	movf	??___fltol,w
  2995  0DF5  07EC               	addwf	___fltol@exp1,f
  2996  0DF6  1D03               	btfss	3,2
  2997  0DF7  2DF9               	goto	u1491
  2998  0DF8  2DFA               	goto	u1490
  2999  0DF9                     u1491:
  3000  0DF9  2DE9               	goto	l1702
  3001  0DFA                     u1490:
  3002  0DFA  2E12               	goto	l1712
  3003  0DFB                     l1704:
  3004  0DFB  3020               	movlw	32
  3005  0DFC  026C               	subwf	___fltol@exp1,w
  3006  0DFD  1C03               	skipc
  3007  0DFE  2E00               	goto	u1501
  3008  0DFF  2E01               	goto	u1500
  3009  0E00                     u1501:
  3010  0E00  2E0D               	goto	l483
  3011  0E01                     u1500:
  3012  0E01  2DB4               	goto	l1682
  3013  0E02                     l1710:
  3014  0E02  3001               	movlw	1
  3015  0E03  00E6               	movwf	??___fltol
  3016  0E04                     u1515:
  3017  0E04  1003               	clrc
  3018  0E05  0DE2               	rlf	___fltol@f1,f
  3019  0E06  0DE3               	rlf	___fltol@f1+1,f
  3020  0E07  0DE4               	rlf	___fltol@f1+2,f
  3021  0E08  0DE5               	rlf	___fltol@f1+3,f
  3022  0E09  0BE6               	decfsz	??___fltol,f
  3023  0E0A  2E04               	goto	u1515
  3024  0E0B  3001               	movlw	1
  3025  0E0C  02EC               	subwf	___fltol@exp1,f
  3026  0E0D                     l483:
  3027  0E0D  086C               	movf	___fltol@exp1,w
  3028  0E0E  1D03               	btfss	3,2
  3029  0E0F  2E11               	goto	u1521
  3030  0E10  2E12               	goto	u1520
  3031  0E11                     u1521:
  3032  0E11  2E02               	goto	l1710
  3033  0E12                     u1520:
  3034  0E12                     l1712:
  3035  0E12  086B               	movf	___fltol@sign1,w
  3036  0E13  1903               	btfsc	3,2
  3037  0E14  2E16               	goto	u1531
  3038  0E15  2E17               	goto	u1530
  3039  0E16                     u1531:
  3040  0E16  2E22               	goto	l486
  3041  0E17                     u1530:
  3042  0E17                     l1714:
  3043  0E17  09E2               	comf	___fltol@f1,f
  3044  0E18  09E3               	comf	___fltol@f1+1,f
  3045  0E19  09E4               	comf	___fltol@f1+2,f
  3046  0E1A  09E5               	comf	___fltol@f1+3,f
  3047  0E1B  0AE2               	incf	___fltol@f1,f
  3048  0E1C  1903               	skipnz
  3049  0E1D  0AE3               	incf	___fltol@f1+1,f
  3050  0E1E  1903               	skipnz
  3051  0E1F  0AE4               	incf	___fltol@f1+2,f
  3052  0E20  1903               	skipnz
  3053  0E21  0AE5               	incf	___fltol@f1+3,f
  3054  0E22                     l486:
  3055  0E22                     l476:
  3056  0E22  0008               	return
  3057  0E23                     __end_of___fltol:
  3058                           
  3059                           	psect	text11
  3060  0021                     __ptext11:	
  3061 ;; *************** function ___flmul *****************
  3062 ;; Defined at:
  3063 ;;		line 8 in file "C:\Program Files\Microchip\xc8\v2.32\pic\sources\c90\common\sprcmul.c"
  3064 ;; Parameters:    Size  Location     Type
  3065 ;;  b               4   14[BANK0 ] long 
  3066 ;;  a               4   18[BANK0 ] long 
  3067 ;; Auto vars:     Size  Location     Type
  3068 ;;  prod            4   34[BANK0 ] struct .
  3069 ;;  grs             4   28[BANK0 ] unsigned long 
  3070 ;;  temp            2   38[BANK0 ] struct .
  3071 ;;  bexp            1   33[BANK0 ] unsigned char 
  3072 ;;  aexp            1   32[BANK0 ] unsigned char 
  3073 ;;  sign            1   27[BANK0 ] unsigned char 
  3074 ;; Return value:  Size  Location     Type
  3075 ;;                  4   14[BANK0 ] unsigned char 
  3076 ;; Registers used:
  3077 ;;		wreg, status,2, status,0, btemp+1, pclath, cstack
  3078 ;; Tracked objects:
  3079 ;;		On entry : 0/0
  3080 ;;		On exit  : 0/0
  3081 ;;		Unchanged: 0/0
  3082 ;; Data sizes:     COMMON   BANK0   BANK1   BANK3   BANK2
  3083 ;;      Params:         0       8       0       0       0
  3084 ;;      Locals:         0      13       0       0       0
  3085 ;;      Temps:          0       5       0       0       0
  3086 ;;      Totals:         0      26       0       0       0
  3087 ;;Total ram usage:       26 bytes
  3088 ;; Hardware stack levels used: 1
  3089 ;; Hardware stack levels required when called: 3
  3090 ;; This function calls:
  3091 ;;		__Umul8_16
  3092 ;; This function is called by:
  3093 ;;		_main
  3094 ;; This function uses a non-reentrant model
  3095 ;;
  3096                           
  3097                           
  3098                           ;psect for function ___flmul
  3099  0021                     ___flmul:
  3100  0021                     l1858:	
  3101                           ;incstack = 0
  3102                           ; Regs used in ___flmul: [wreg+status,2+status,0+btemp+1+pclath+cstack]
  3103                           
  3104  0021  1283               	bcf	3,5	;RP0=0, select bank0
  3105  0022  1303               	bcf	3,6	;RP1=0, select bank0
  3106  0023  0831               	movf	___flmul@b+3,w
  3107  0024  3980               	andlw	128
  3108  0025  00B6               	movwf	??___flmul
  3109  0026  0836               	movf	??___flmul,w
  3110  0027  00BB               	movwf	___flmul@sign
  3111  0028                     l1860:
  3112  0028  0831               	movf	___flmul@b+3,w
  3113  0029  00B6               	movwf	??___flmul
  3114  002A  0736               	addwf	??___flmul,w
  3115  002B  00B7               	movwf	??___flmul+1
  3116  002C  0837               	movf	??___flmul+1,w
  3117  002D  00C1               	movwf	___flmul@bexp
  3118  002E                     l1862:
  3119  002E  1FB0               	btfss	___flmul@b+2,7
  3120  002F  2831               	goto	u1831
  3121  0030  2832               	goto	u1830
  3122  0031                     u1831:
  3123  0031  2833               	goto	l1866
  3124  0032                     u1830:
  3125  0032                     l1864:
  3126  0032  1441               	bsf	___flmul@bexp,0
  3127  0033                     l1866:
  3128  0033  0841               	movf	___flmul@bexp,w
  3129  0034  1903               	btfsc	3,2
  3130  0035  2837               	goto	u1841
  3131  0036  2838               	goto	u1840
  3132  0037                     u1841:
  3133  0037  2847               	goto	l1874
  3134  0038                     u1840:
  3135  0038                     l1868:
  3136  0038  0A41               	incf	___flmul@bexp,w
  3137  0039  1D03               	btfss	3,2
  3138  003A  283C               	goto	u1851
  3139  003B  283D               	goto	u1850
  3140  003C                     u1851:
  3141  003C  2845               	goto	l1872
  3142  003D                     u1850:
  3143  003D                     l1870:
  3144  003D  3000               	movlw	0
  3145  003E  00B1               	movwf	___flmul@b+3
  3146  003F  3000               	movlw	0
  3147  0040  00B0               	movwf	___flmul@b+2
  3148  0041  3000               	movlw	0
  3149  0042  00AF               	movwf	___flmul@b+1
  3150  0043  3000               	movlw	0
  3151  0044  00AE               	movwf	___flmul@b
  3152  0045                     l1872:
  3153  0045  17B0               	bsf	___flmul@b+2,7
  3154  0046  284F               	goto	l1876
  3155  0047                     l1874:
  3156  0047  3000               	movlw	0
  3157  0048  00B1               	movwf	___flmul@b+3
  3158  0049  3000               	movlw	0
  3159  004A  00B0               	movwf	___flmul@b+2
  3160  004B  3000               	movlw	0
  3161  004C  00AF               	movwf	___flmul@b+1
  3162  004D  3000               	movlw	0
  3163  004E  00AE               	movwf	___flmul@b
  3164  004F                     l1876:
  3165  004F  0835               	movf	___flmul@a+3,w
  3166  0050  3980               	andlw	128
  3167  0051  00B6               	movwf	??___flmul
  3168  0052  0836               	movf	??___flmul,w
  3169  0053  06BB               	xorwf	___flmul@sign,f
  3170  0054                     l1878:
  3171  0054  0835               	movf	___flmul@a+3,w
  3172  0055  00B6               	movwf	??___flmul
  3173  0056  0736               	addwf	??___flmul,w
  3174  0057  00B7               	movwf	??___flmul+1
  3175  0058  0837               	movf	??___flmul+1,w
  3176  0059  00C0               	movwf	___flmul@aexp
  3177  005A                     l1880:
  3178  005A  1FB4               	btfss	___flmul@a+2,7
  3179  005B  285D               	goto	u1861
  3180  005C  285E               	goto	u1860
  3181  005D                     u1861:
  3182  005D  285F               	goto	l1884
  3183  005E                     u1860:
  3184  005E                     l1882:
  3185  005E  1440               	bsf	___flmul@aexp,0
  3186  005F                     l1884:
  3187  005F  0840               	movf	___flmul@aexp,w
  3188  0060  1903               	btfsc	3,2
  3189  0061  2863               	goto	u1871
  3190  0062  2864               	goto	u1870
  3191  0063                     u1871:
  3192  0063  2873               	goto	l1892
  3193  0064                     u1870:
  3194  0064                     l1886:
  3195  0064  0A40               	incf	___flmul@aexp,w
  3196  0065  1D03               	btfss	3,2
  3197  0066  2868               	goto	u1881
  3198  0067  2869               	goto	u1880
  3199  0068                     u1881:
  3200  0068  2871               	goto	l1890
  3201  0069                     u1880:
  3202  0069                     l1888:
  3203  0069  3000               	movlw	0
  3204  006A  00B5               	movwf	___flmul@a+3
  3205  006B  3000               	movlw	0
  3206  006C  00B4               	movwf	___flmul@a+2
  3207  006D  3000               	movlw	0
  3208  006E  00B3               	movwf	___flmul@a+1
  3209  006F  3000               	movlw	0
  3210  0070  00B2               	movwf	___flmul@a
  3211  0071                     l1890:
  3212  0071  17B4               	bsf	___flmul@a+2,7
  3213  0072  287B               	goto	l1894
  3214  0073                     l1892:
  3215  0073  3000               	movlw	0
  3216  0074  00B5               	movwf	___flmul@a+3
  3217  0075  3000               	movlw	0
  3218  0076  00B4               	movwf	___flmul@a+2
  3219  0077  3000               	movlw	0
  3220  0078  00B3               	movwf	___flmul@a+1
  3221  0079  3000               	movlw	0
  3222  007A  00B2               	movwf	___flmul@a
  3223  007B                     l1894:
  3224  007B  0840               	movf	___flmul@aexp,w
  3225  007C  1903               	btfsc	3,2
  3226  007D  287F               	goto	u1891
  3227  007E  2880               	goto	u1890
  3228  007F                     u1891:
  3229  007F  2885               	goto	l1898
  3230  0080                     u1890:
  3231  0080                     l1896:
  3232  0080  0841               	movf	___flmul@bexp,w
  3233  0081  1D03               	btfss	3,2
  3234  0082  2884               	goto	u1901
  3235  0083  2885               	goto	u1900
  3236  0084                     u1901:
  3237  0084  288E               	goto	l1902
  3238  0085                     u1900:
  3239  0085                     l1898:
  3240  0085  3000               	movlw	0
  3241  0086  00B1               	movwf	?___flmul+3
  3242  0087  3000               	movlw	0
  3243  0088  00B0               	movwf	?___flmul+2
  3244  0089  3000               	movlw	0
  3245  008A  00AF               	movwf	?___flmul+1
  3246  008B  3000               	movlw	0
  3247  008C  00AE               	movwf	?___flmul
  3248  008D  2B81               	goto	l679
  3249  008E                     l1902:
  3250  008E  082E               	movf	___flmul@b,w
  3251  008F  00B6               	movwf	??___flmul
  3252  0090  0836               	movf	??___flmul,w
  3253  0091  00A0               	movwf	__Umul8_16@multiplicand
  3254  0092  0834               	movf	___flmul@a+2,w
  3255  0093  120A  158A  247A  120A  118A  	fcall	__Umul8_16
  3256  0098  1283               	bcf	3,5	;RP0=0, select bank0
  3257  0099  1303               	bcf	3,6	;RP1=0, select bank0
  3258  009A  0821               	movf	?__Umul8_16+1,w
  3259  009B  00C7               	movwf	___flmul@temp+1
  3260  009C  0820               	movf	?__Umul8_16,w
  3261  009D  00C6               	movwf	___flmul@temp
  3262  009E                     l1904:
  3263  009E  0846               	movf	___flmul@temp,w
  3264  009F  00B6               	movwf	??___flmul
  3265  00A0  01B7               	clrf	??___flmul+1
  3266  00A1  01B8               	clrf	??___flmul+2
  3267  00A2  01B9               	clrf	??___flmul+3
  3268  00A3  0839               	movf	??___flmul+3,w
  3269  00A4  00BF               	movwf	___flmul@grs+3
  3270  00A5  0838               	movf	??___flmul+2,w
  3271  00A6  00BE               	movwf	___flmul@grs+2
  3272  00A7  0837               	movf	??___flmul+1,w
  3273  00A8  00BD               	movwf	___flmul@grs+1
  3274  00A9  0836               	movf	??___flmul,w
  3275  00AA  00BC               	movwf	___flmul@grs
  3276  00AB                     l1906:
  3277  00AB  0847               	movf	___flmul@temp+1,w
  3278  00AC  00B6               	movwf	??___flmul
  3279  00AD  01B7               	clrf	??___flmul+1
  3280  00AE  01B8               	clrf	??___flmul+2
  3281  00AF  01B9               	clrf	??___flmul+3
  3282  00B0  0839               	movf	??___flmul+3,w
  3283  00B1  00C5               	movwf	___flmul@prod+3
  3284  00B2  0838               	movf	??___flmul+2,w
  3285  00B3  00C4               	movwf	___flmul@prod+2
  3286  00B4  0837               	movf	??___flmul+1,w
  3287  00B5  00C3               	movwf	___flmul@prod+1
  3288  00B6  0836               	movf	??___flmul,w
  3289  00B7  00C2               	movwf	___flmul@prod
  3290  00B8  082F               	movf	___flmul@b+1,w
  3291  00B9  00B6               	movwf	??___flmul
  3292  00BA  0836               	movf	??___flmul,w
  3293  00BB  00A0               	movwf	__Umul8_16@multiplicand
  3294  00BC  0833               	movf	___flmul@a+1,w
  3295  00BD  120A  158A  247A  120A  118A  	fcall	__Umul8_16
  3296  00C2  1283               	bcf	3,5	;RP0=0, select bank0
  3297  00C3  1303               	bcf	3,6	;RP1=0, select bank0
  3298  00C4  0821               	movf	?__Umul8_16+1,w
  3299  00C5  00C7               	movwf	___flmul@temp+1
  3300  00C6  0820               	movf	?__Umul8_16,w
  3301  00C7  00C6               	movwf	___flmul@temp
  3302  00C8                     l1908:
  3303  00C8  0846               	movf	___flmul@temp,w
  3304  00C9  00B6               	movwf	??___flmul
  3305  00CA  01B7               	clrf	??___flmul+1
  3306  00CB  01B8               	clrf	??___flmul+2
  3307  00CC  01B9               	clrf	??___flmul+3
  3308  00CD  0836               	movf	??___flmul,w
  3309  00CE  07BC               	addwf	___flmul@grs,f
  3310  00CF  0837               	movf	??___flmul+1,w
  3311  00D0  1103               	clrz
  3312  00D1  1803               	skipnc
  3313  00D2  3E01               	addlw	1
  3314  00D3  1903               	skipnz
  3315  00D4  28D6               	goto	u1911
  3316  00D5  07BD               	addwf	___flmul@grs+1,f
  3317  00D6                     u1911:
  3318  00D6  0838               	movf	??___flmul+2,w
  3319  00D7  1103               	clrz
  3320  00D8  1803               	skipnc
  3321  00D9  3E01               	addlw	1
  3322  00DA  1903               	skipnz
  3323  00DB  28DD               	goto	u1912
  3324  00DC  07BE               	addwf	___flmul@grs+2,f
  3325  00DD                     u1912:
  3326  00DD  0839               	movf	??___flmul+3,w
  3327  00DE  1103               	clrz
  3328  00DF  1803               	skipnc
  3329  00E0  3E01               	addlw	1
  3330  00E1  1903               	skipnz
  3331  00E2  28E4               	goto	u1913
  3332  00E3  07BF               	addwf	___flmul@grs+3,f
  3333  00E4                     u1913:
  3334  00E4                     l1910:
  3335  00E4  0847               	movf	___flmul@temp+1,w
  3336  00E5  00B6               	movwf	??___flmul
  3337  00E6  01B7               	clrf	??___flmul+1
  3338  00E7  01B8               	clrf	??___flmul+2
  3339  00E8  01B9               	clrf	??___flmul+3
  3340  00E9  0836               	movf	??___flmul,w
  3341  00EA  07C2               	addwf	___flmul@prod,f
  3342  00EB  0837               	movf	??___flmul+1,w
  3343  00EC  1103               	clrz
  3344  00ED  1803               	skipnc
  3345  00EE  3E01               	addlw	1
  3346  00EF  1903               	skipnz
  3347  00F0  28F2               	goto	u1921
  3348  00F1  07C3               	addwf	___flmul@prod+1,f
  3349  00F2                     u1921:
  3350  00F2  0838               	movf	??___flmul+2,w
  3351  00F3  1103               	clrz
  3352  00F4  1803               	skipnc
  3353  00F5  3E01               	addlw	1
  3354  00F6  1903               	skipnz
  3355  00F7  28F9               	goto	u1922
  3356  00F8  07C4               	addwf	___flmul@prod+2,f
  3357  00F9                     u1922:
  3358  00F9  0839               	movf	??___flmul+3,w
  3359  00FA  1103               	clrz
  3360  00FB  1803               	skipnc
  3361  00FC  3E01               	addlw	1
  3362  00FD  1903               	skipnz
  3363  00FE  2900               	goto	u1923
  3364  00FF  07C5               	addwf	___flmul@prod+3,f
  3365  0100                     u1923:
  3366  0100  0830               	movf	___flmul@b+2,w
  3367  0101  00B6               	movwf	??___flmul
  3368  0102  0836               	movf	??___flmul,w
  3369  0103  00A0               	movwf	__Umul8_16@multiplicand
  3370  0104  0832               	movf	___flmul@a,w
  3371  0105  120A  158A  247A  120A  118A  	fcall	__Umul8_16
  3372  010A  1283               	bcf	3,5	;RP0=0, select bank0
  3373  010B  1303               	bcf	3,6	;RP1=0, select bank0
  3374  010C  0821               	movf	?__Umul8_16+1,w
  3375  010D  00C7               	movwf	___flmul@temp+1
  3376  010E  0820               	movf	?__Umul8_16,w
  3377  010F  00C6               	movwf	___flmul@temp
  3378  0110                     l1912:
  3379  0110  0846               	movf	___flmul@temp,w
  3380  0111  00B6               	movwf	??___flmul
  3381  0112  01B7               	clrf	??___flmul+1
  3382  0113  01B8               	clrf	??___flmul+2
  3383  0114  01B9               	clrf	??___flmul+3
  3384  0115  0836               	movf	??___flmul,w
  3385  0116  07BC               	addwf	___flmul@grs,f
  3386  0117  0837               	movf	??___flmul+1,w
  3387  0118  1103               	clrz
  3388  0119  1803               	skipnc
  3389  011A  3E01               	addlw	1
  3390  011B  1903               	skipnz
  3391  011C  291E               	goto	u1931
  3392  011D  07BD               	addwf	___flmul@grs+1,f
  3393  011E                     u1931:
  3394  011E  0838               	movf	??___flmul+2,w
  3395  011F  1103               	clrz
  3396  0120  1803               	skipnc
  3397  0121  3E01               	addlw	1
  3398  0122  1903               	skipnz
  3399  0123  2925               	goto	u1932
  3400  0124  07BE               	addwf	___flmul@grs+2,f
  3401  0125                     u1932:
  3402  0125  0839               	movf	??___flmul+3,w
  3403  0126  1103               	clrz
  3404  0127  1803               	skipnc
  3405  0128  3E01               	addlw	1
  3406  0129  1903               	skipnz
  3407  012A  292C               	goto	u1933
  3408  012B  07BF               	addwf	___flmul@grs+3,f
  3409  012C                     u1933:
  3410  012C                     l1914:
  3411  012C  0847               	movf	___flmul@temp+1,w
  3412  012D  00B6               	movwf	??___flmul
  3413  012E  01B7               	clrf	??___flmul+1
  3414  012F  01B8               	clrf	??___flmul+2
  3415  0130  01B9               	clrf	??___flmul+3
  3416  0131  0836               	movf	??___flmul,w
  3417  0132  07C2               	addwf	___flmul@prod,f
  3418  0133  0837               	movf	??___flmul+1,w
  3419  0134  1103               	clrz
  3420  0135  1803               	skipnc
  3421  0136  3E01               	addlw	1
  3422  0137  1903               	skipnz
  3423  0138  293A               	goto	u1941
  3424  0139  07C3               	addwf	___flmul@prod+1,f
  3425  013A                     u1941:
  3426  013A  0838               	movf	??___flmul+2,w
  3427  013B  1103               	clrz
  3428  013C  1803               	skipnc
  3429  013D  3E01               	addlw	1
  3430  013E  1903               	skipnz
  3431  013F  2941               	goto	u1942
  3432  0140  07C4               	addwf	___flmul@prod+2,f
  3433  0141                     u1942:
  3434  0141  0839               	movf	??___flmul+3,w
  3435  0142  1103               	clrz
  3436  0143  1803               	skipnc
  3437  0144  3E01               	addlw	1
  3438  0145  1903               	skipnz
  3439  0146  2948               	goto	u1943
  3440  0147  07C5               	addwf	___flmul@prod+3,f
  3441  0148                     u1943:
  3442  0148                     l1916:
  3443  0148  3008               	movlw	8
  3444  0149  00B6               	movwf	??___flmul
  3445  014A                     u1955:
  3446  014A  1003               	clrc
  3447  014B  0DBC               	rlf	___flmul@grs,f
  3448  014C  0DBD               	rlf	___flmul@grs+1,f
  3449  014D  0DBE               	rlf	___flmul@grs+2,f
  3450  014E  0DBF               	rlf	___flmul@grs+3,f
  3451  014F  0BB6               	decfsz	??___flmul,f
  3452  0150  294A               	goto	u1955
  3453  0151                     l1918:
  3454  0151  082F               	movf	___flmul@b+1,w
  3455  0152  00B6               	movwf	??___flmul
  3456  0153  0836               	movf	??___flmul,w
  3457  0154  00A0               	movwf	__Umul8_16@multiplicand
  3458  0155  0832               	movf	___flmul@a,w
  3459  0156  120A  158A  247A  120A  118A  	fcall	__Umul8_16
  3460  015B  1283               	bcf	3,5	;RP0=0, select bank0
  3461  015C  1303               	bcf	3,6	;RP1=0, select bank0
  3462  015D  0821               	movf	?__Umul8_16+1,w
  3463  015E  00C7               	movwf	___flmul@temp+1
  3464  015F  0820               	movf	?__Umul8_16,w
  3465  0160  00C6               	movwf	___flmul@temp
  3466  0161                     l1920:
  3467  0161  0846               	movf	___flmul@temp,w
  3468  0162  00B6               	movwf	??___flmul
  3469  0163  0847               	movf	___flmul@temp+1,w
  3470  0164  00B7               	movwf	??___flmul+1
  3471  0165  01B8               	clrf	??___flmul+2
  3472  0166  01B9               	clrf	??___flmul+3
  3473  0167  0836               	movf	??___flmul,w
  3474  0168  07BC               	addwf	___flmul@grs,f
  3475  0169  0837               	movf	??___flmul+1,w
  3476  016A  1103               	clrz
  3477  016B  1803               	skipnc
  3478  016C  3E01               	addlw	1
  3479  016D  1903               	skipnz
  3480  016E  2970               	goto	u1961
  3481  016F  07BD               	addwf	___flmul@grs+1,f
  3482  0170                     u1961:
  3483  0170  0838               	movf	??___flmul+2,w
  3484  0171  1103               	clrz
  3485  0172  1803               	skipnc
  3486  0173  3E01               	addlw	1
  3487  0174  1903               	skipnz
  3488  0175  2977               	goto	u1962
  3489  0176  07BE               	addwf	___flmul@grs+2,f
  3490  0177                     u1962:
  3491  0177  0839               	movf	??___flmul+3,w
  3492  0178  1103               	clrz
  3493  0179  1803               	skipnc
  3494  017A  3E01               	addlw	1
  3495  017B  1903               	skipnz
  3496  017C  297E               	goto	u1963
  3497  017D  07BF               	addwf	___flmul@grs+3,f
  3498  017E                     u1963:
  3499  017E                     l1922:
  3500  017E  082E               	movf	___flmul@b,w
  3501  017F  00B6               	movwf	??___flmul
  3502  0180  0836               	movf	??___flmul,w
  3503  0181  00A0               	movwf	__Umul8_16@multiplicand
  3504  0182  0833               	movf	___flmul@a+1,w
  3505  0183  120A  158A  247A  120A  118A  	fcall	__Umul8_16
  3506  0188  1283               	bcf	3,5	;RP0=0, select bank0
  3507  0189  1303               	bcf	3,6	;RP1=0, select bank0
  3508  018A  0821               	movf	?__Umul8_16+1,w
  3509  018B  00C7               	movwf	___flmul@temp+1
  3510  018C  0820               	movf	?__Umul8_16,w
  3511  018D  00C6               	movwf	___flmul@temp
  3512  018E                     l1924:
  3513  018E  0846               	movf	___flmul@temp,w
  3514  018F  00B6               	movwf	??___flmul
  3515  0190  0847               	movf	___flmul@temp+1,w
  3516  0191  00B7               	movwf	??___flmul+1
  3517  0192  01B8               	clrf	??___flmul+2
  3518  0193  01B9               	clrf	??___flmul+3
  3519  0194  0836               	movf	??___flmul,w
  3520  0195  07BC               	addwf	___flmul@grs,f
  3521  0196  0837               	movf	??___flmul+1,w
  3522  0197  1103               	clrz
  3523  0198  1803               	skipnc
  3524  0199  3E01               	addlw	1
  3525  019A  1903               	skipnz
  3526  019B  299D               	goto	u1971
  3527  019C  07BD               	addwf	___flmul@grs+1,f
  3528  019D                     u1971:
  3529  019D  0838               	movf	??___flmul+2,w
  3530  019E  1103               	clrz
  3531  019F  1803               	skipnc
  3532  01A0  3E01               	addlw	1
  3533  01A1  1903               	skipnz
  3534  01A2  29A4               	goto	u1972
  3535  01A3  07BE               	addwf	___flmul@grs+2,f
  3536  01A4                     u1972:
  3537  01A4  0839               	movf	??___flmul+3,w
  3538  01A5  1103               	clrz
  3539  01A6  1803               	skipnc
  3540  01A7  3E01               	addlw	1
  3541  01A8  1903               	skipnz
  3542  01A9  29AB               	goto	u1973
  3543  01AA  07BF               	addwf	___flmul@grs+3,f
  3544  01AB                     u1973:
  3545  01AB                     l1926:
  3546  01AB  3008               	movlw	8
  3547  01AC  00B6               	movwf	??___flmul
  3548  01AD                     u1985:
  3549  01AD  1003               	clrc
  3550  01AE  0DBC               	rlf	___flmul@grs,f
  3551  01AF  0DBD               	rlf	___flmul@grs+1,f
  3552  01B0  0DBE               	rlf	___flmul@grs+2,f
  3553  01B1  0DBF               	rlf	___flmul@grs+3,f
  3554  01B2  0BB6               	decfsz	??___flmul,f
  3555  01B3  29AD               	goto	u1985
  3556  01B4  082E               	movf	___flmul@b,w
  3557  01B5  00B6               	movwf	??___flmul
  3558  01B6  0836               	movf	??___flmul,w
  3559  01B7  00A0               	movwf	__Umul8_16@multiplicand
  3560  01B8  0832               	movf	___flmul@a,w
  3561  01B9  120A  158A  247A  120A  118A  	fcall	__Umul8_16
  3562  01BE  1283               	bcf	3,5	;RP0=0, select bank0
  3563  01BF  1303               	bcf	3,6	;RP1=0, select bank0
  3564  01C0  0821               	movf	?__Umul8_16+1,w
  3565  01C1  00C7               	movwf	___flmul@temp+1
  3566  01C2  0820               	movf	?__Umul8_16,w
  3567  01C3  00C6               	movwf	___flmul@temp
  3568  01C4                     l1928:
  3569  01C4  0846               	movf	___flmul@temp,w
  3570  01C5  00B6               	movwf	??___flmul
  3571  01C6  0847               	movf	___flmul@temp+1,w
  3572  01C7  00B7               	movwf	??___flmul+1
  3573  01C8  01B8               	clrf	??___flmul+2
  3574  01C9  01B9               	clrf	??___flmul+3
  3575  01CA  0836               	movf	??___flmul,w
  3576  01CB  07BC               	addwf	___flmul@grs,f
  3577  01CC  0837               	movf	??___flmul+1,w
  3578  01CD  1103               	clrz
  3579  01CE  1803               	skipnc
  3580  01CF  3E01               	addlw	1
  3581  01D0  1903               	skipnz
  3582  01D1  29D3               	goto	u1991
  3583  01D2  07BD               	addwf	___flmul@grs+1,f
  3584  01D3                     u1991:
  3585  01D3  0838               	movf	??___flmul+2,w
  3586  01D4  1103               	clrz
  3587  01D5  1803               	skipnc
  3588  01D6  3E01               	addlw	1
  3589  01D7  1903               	skipnz
  3590  01D8  29DA               	goto	u1992
  3591  01D9  07BE               	addwf	___flmul@grs+2,f
  3592  01DA                     u1992:
  3593  01DA  0839               	movf	??___flmul+3,w
  3594  01DB  1103               	clrz
  3595  01DC  1803               	skipnc
  3596  01DD  3E01               	addlw	1
  3597  01DE  1903               	skipnz
  3598  01DF  29E1               	goto	u1993
  3599  01E0  07BF               	addwf	___flmul@grs+3,f
  3600  01E1                     u1993:
  3601  01E1                     l1930:
  3602  01E1  082F               	movf	___flmul@b+1,w
  3603  01E2  00B6               	movwf	??___flmul
  3604  01E3  0836               	movf	??___flmul,w
  3605  01E4  00A0               	movwf	__Umul8_16@multiplicand
  3606  01E5  0834               	movf	___flmul@a+2,w
  3607  01E6  120A  158A  247A  120A  118A  	fcall	__Umul8_16
  3608  01EB  1283               	bcf	3,5	;RP0=0, select bank0
  3609  01EC  1303               	bcf	3,6	;RP1=0, select bank0
  3610  01ED  0821               	movf	?__Umul8_16+1,w
  3611  01EE  00C7               	movwf	___flmul@temp+1
  3612  01EF  0820               	movf	?__Umul8_16,w
  3613  01F0  00C6               	movwf	___flmul@temp
  3614  01F1  0846               	movf	___flmul@temp,w
  3615  01F2  00B6               	movwf	??___flmul
  3616  01F3  0847               	movf	___flmul@temp+1,w
  3617  01F4  00B7               	movwf	??___flmul+1
  3618  01F5  01B8               	clrf	??___flmul+2
  3619  01F6  01B9               	clrf	??___flmul+3
  3620  01F7  0836               	movf	??___flmul,w
  3621  01F8  07C2               	addwf	___flmul@prod,f
  3622  01F9  0837               	movf	??___flmul+1,w
  3623  01FA  1103               	clrz
  3624  01FB  1803               	skipnc
  3625  01FC  3E01               	addlw	1
  3626  01FD  1903               	skipnz
  3627  01FE  2A00               	goto	u2001
  3628  01FF  07C3               	addwf	___flmul@prod+1,f
  3629  0200                     u2001:
  3630  0200  0838               	movf	??___flmul+2,w
  3631  0201  1103               	clrz
  3632  0202  1803               	skipnc
  3633  0203  3E01               	addlw	1
  3634  0204  1903               	skipnz
  3635  0205  2A07               	goto	u2002
  3636  0206  07C4               	addwf	___flmul@prod+2,f
  3637  0207                     u2002:
  3638  0207  0839               	movf	??___flmul+3,w
  3639  0208  1103               	clrz
  3640  0209  1803               	skipnc
  3641  020A  3E01               	addlw	1
  3642  020B  1903               	skipnz
  3643  020C  2A0E               	goto	u2003
  3644  020D  07C5               	addwf	___flmul@prod+3,f
  3645  020E                     u2003:
  3646  020E                     l1932:
  3647  020E  0830               	movf	___flmul@b+2,w
  3648  020F  00B6               	movwf	??___flmul
  3649  0210  0836               	movf	??___flmul,w
  3650  0211  00A0               	movwf	__Umul8_16@multiplicand
  3651  0212  0833               	movf	___flmul@a+1,w
  3652  0213  120A  158A  247A  120A  118A  	fcall	__Umul8_16
  3653  0218  1283               	bcf	3,5	;RP0=0, select bank0
  3654  0219  1303               	bcf	3,6	;RP1=0, select bank0
  3655  021A  0821               	movf	?__Umul8_16+1,w
  3656  021B  00C7               	movwf	___flmul@temp+1
  3657  021C  0820               	movf	?__Umul8_16,w
  3658  021D  00C6               	movwf	___flmul@temp
  3659  021E                     l1934:
  3660  021E  0846               	movf	___flmul@temp,w
  3661  021F  00B6               	movwf	??___flmul
  3662  0220  0847               	movf	___flmul@temp+1,w
  3663  0221  00B7               	movwf	??___flmul+1
  3664  0222  01B8               	clrf	??___flmul+2
  3665  0223  01B9               	clrf	??___flmul+3
  3666  0224  0836               	movf	??___flmul,w
  3667  0225  07C2               	addwf	___flmul@prod,f
  3668  0226  0837               	movf	??___flmul+1,w
  3669  0227  1103               	clrz
  3670  0228  1803               	skipnc
  3671  0229  3E01               	addlw	1
  3672  022A  1903               	skipnz
  3673  022B  2A2D               	goto	u2011
  3674  022C  07C3               	addwf	___flmul@prod+1,f
  3675  022D                     u2011:
  3676  022D  0838               	movf	??___flmul+2,w
  3677  022E  1103               	clrz
  3678  022F  1803               	skipnc
  3679  0230  3E01               	addlw	1
  3680  0231  1903               	skipnz
  3681  0232  2A34               	goto	u2012
  3682  0233  07C4               	addwf	___flmul@prod+2,f
  3683  0234                     u2012:
  3684  0234  0839               	movf	??___flmul+3,w
  3685  0235  1103               	clrz
  3686  0236  1803               	skipnc
  3687  0237  3E01               	addlw	1
  3688  0238  1903               	skipnz
  3689  0239  2A3B               	goto	u2013
  3690  023A  07C5               	addwf	___flmul@prod+3,f
  3691  023B                     u2013:
  3692  023B  0830               	movf	___flmul@b+2,w
  3693  023C  00B6               	movwf	??___flmul
  3694  023D  0836               	movf	??___flmul,w
  3695  023E  00A0               	movwf	__Umul8_16@multiplicand
  3696  023F  0834               	movf	___flmul@a+2,w
  3697  0240  120A  158A  247A  120A  118A  	fcall	__Umul8_16
  3698  0245  1283               	bcf	3,5	;RP0=0, select bank0
  3699  0246  1303               	bcf	3,6	;RP1=0, select bank0
  3700  0247  0821               	movf	?__Umul8_16+1,w
  3701  0248  00C7               	movwf	___flmul@temp+1
  3702  0249  0820               	movf	?__Umul8_16,w
  3703  024A  00C6               	movwf	___flmul@temp
  3704  024B                     l1936:
  3705  024B  0846               	movf	___flmul@temp,w
  3706  024C  00B6               	movwf	??___flmul
  3707  024D  0847               	movf	___flmul@temp+1,w
  3708  024E  00B7               	movwf	??___flmul+1
  3709  024F  01B8               	clrf	??___flmul+2
  3710  0250  01B9               	clrf	??___flmul+3
  3711  0251  3008               	movlw	8
  3712  0252                     u2025:
  3713  0252  1003               	clrc
  3714  0253  0DB6               	rlf	??___flmul,f
  3715  0254  0DB7               	rlf	??___flmul+1,f
  3716  0255  0DB8               	rlf	??___flmul+2,f
  3717  0256  0DB9               	rlf	??___flmul+3,f
  3718  0257                     u2020:
  3719  0257  3EFF               	addlw	-1
  3720  0258  1D03               	skipz
  3721  0259  2A52               	goto	u2025
  3722  025A  0836               	movf	??___flmul,w
  3723  025B  07C2               	addwf	___flmul@prod,f
  3724  025C  0837               	movf	??___flmul+1,w
  3725  025D  1103               	clrz
  3726  025E  1803               	skipnc
  3727  025F  3E01               	addlw	1
  3728  0260  1903               	skipnz
  3729  0261  2A63               	goto	u2031
  3730  0262  07C3               	addwf	___flmul@prod+1,f
  3731  0263                     u2031:
  3732  0263  0838               	movf	??___flmul+2,w
  3733  0264  1103               	clrz
  3734  0265  1803               	skipnc
  3735  0266  3E01               	addlw	1
  3736  0267  1903               	skipnz
  3737  0268  2A6A               	goto	u2032
  3738  0269  07C4               	addwf	___flmul@prod+2,f
  3739  026A                     u2032:
  3740  026A  0839               	movf	??___flmul+3,w
  3741  026B  1103               	clrz
  3742  026C  1803               	skipnc
  3743  026D  3E01               	addlw	1
  3744  026E  1903               	skipnz
  3745  026F  2A71               	goto	u2033
  3746  0270  07C5               	addwf	___flmul@prod+3,f
  3747  0271                     u2033:
  3748  0271                     l1938:
  3749  0271  083C               	movf	___flmul@grs,w
  3750  0272  00B6               	movwf	??___flmul
  3751  0273  083D               	movf	___flmul@grs+1,w
  3752  0274  00B7               	movwf	??___flmul+1
  3753  0275  083E               	movf	___flmul@grs+2,w
  3754  0276  00B8               	movwf	??___flmul+2
  3755  0277  083F               	movf	___flmul@grs+3,w
  3756  0278  00B9               	movwf	??___flmul+3
  3757  0279  3018               	movlw	24
  3758  027A                     u2045:
  3759  027A  1003               	clrc
  3760  027B  0CB9               	rrf	??___flmul+3,f
  3761  027C  0CB8               	rrf	??___flmul+2,f
  3762  027D  0CB7               	rrf	??___flmul+1,f
  3763  027E  0CB6               	rrf	??___flmul,f
  3764  027F                     u2040:
  3765  027F  3EFF               	addlw	-1
  3766  0280  1D03               	skipz
  3767  0281  2A7A               	goto	u2045
  3768  0282  0836               	movf	??___flmul,w
  3769  0283  07C2               	addwf	___flmul@prod,f
  3770  0284  0837               	movf	??___flmul+1,w
  3771  0285  1103               	clrz
  3772  0286  1803               	skipnc
  3773  0287  3E01               	addlw	1
  3774  0288  1903               	skipnz
  3775  0289  2A8B               	goto	u2051
  3776  028A  07C3               	addwf	___flmul@prod+1,f
  3777  028B                     u2051:
  3778  028B  0838               	movf	??___flmul+2,w
  3779  028C  1103               	clrz
  3780  028D  1803               	skipnc
  3781  028E  3E01               	addlw	1
  3782  028F  1903               	skipnz
  3783  0290  2A92               	goto	u2052
  3784  0291  07C4               	addwf	___flmul@prod+2,f
  3785  0292                     u2052:
  3786  0292  0839               	movf	??___flmul+3,w
  3787  0293  1103               	clrz
  3788  0294  1803               	skipnc
  3789  0295  3E01               	addlw	1
  3790  0296  1903               	skipnz
  3791  0297  2A99               	goto	u2053
  3792  0298  07C5               	addwf	___flmul@prod+3,f
  3793  0299                     u2053:
  3794  0299                     l1940:
  3795  0299  3008               	movlw	8
  3796  029A  00B6               	movwf	??___flmul
  3797  029B                     u2065:
  3798  029B  1003               	clrc
  3799  029C  0DBC               	rlf	___flmul@grs,f
  3800  029D  0DBD               	rlf	___flmul@grs+1,f
  3801  029E  0DBE               	rlf	___flmul@grs+2,f
  3802  029F  0DBF               	rlf	___flmul@grs+3,f
  3803  02A0  0BB6               	decfsz	??___flmul,f
  3804  02A1  2A9B               	goto	u2065
  3805  02A2                     l1942:
  3806  02A2  0841               	movf	___flmul@bexp,w
  3807  02A3  0740               	addwf	___flmul@aexp,w
  3808  02A4  00B6               	movwf	??___flmul
  3809  02A5  01B7               	clrf	??___flmul+1
  3810  02A6  0DB7               	rlf	??___flmul+1,f
  3811  02A7  0836               	movf	??___flmul,w
  3812  02A8  3E82               	addlw	130
  3813  02A9  00C6               	movwf	___flmul@temp
  3814  02AA  0837               	movf	??___flmul+1,w
  3815  02AB  1803               	skipnc
  3816  02AC  3E01               	addlw	1
  3817  02AD  3EFF               	addlw	255
  3818  02AE  00C7               	movwf	___flmul@temp+1
  3819  02AF  2ACD               	goto	l1954
  3820  02B0                     l1944:
  3821  02B0  3001               	movlw	1
  3822  02B1  00B6               	movwf	??___flmul
  3823  02B2                     u2075:
  3824  02B2  1003               	clrc
  3825  02B3  0DC2               	rlf	___flmul@prod,f
  3826  02B4  0DC3               	rlf	___flmul@prod+1,f
  3827  02B5  0DC4               	rlf	___flmul@prod+2,f
  3828  02B6  0DC5               	rlf	___flmul@prod+3,f
  3829  02B7  0BB6               	decfsz	??___flmul,f
  3830  02B8  2AB2               	goto	u2075
  3831  02B9                     l1946:
  3832  02B9  1FBF               	btfss	___flmul@grs+3,7
  3833  02BA  2ABC               	goto	u2081
  3834  02BB  2ABD               	goto	u2080
  3835  02BC                     u2081:
  3836  02BC  2ABE               	goto	l1950
  3837  02BD                     u2080:
  3838  02BD                     l1948:
  3839  02BD  1442               	bsf	___flmul@prod,0
  3840  02BE                     l1950:
  3841  02BE  3001               	movlw	1
  3842  02BF  00B6               	movwf	??___flmul
  3843  02C0                     u2095:
  3844  02C0  1003               	clrc
  3845  02C1  0DBC               	rlf	___flmul@grs,f
  3846  02C2  0DBD               	rlf	___flmul@grs+1,f
  3847  02C3  0DBE               	rlf	___flmul@grs+2,f
  3848  02C4  0DBF               	rlf	___flmul@grs+3,f
  3849  02C5  0BB6               	decfsz	??___flmul,f
  3850  02C6  2AC0               	goto	u2095
  3851  02C7                     l1952:
  3852  02C7  30FF               	movlw	255
  3853  02C8  07C6               	addwf	___flmul@temp,f
  3854  02C9  1803               	skipnc
  3855  02CA  0AC7               	incf	___flmul@temp+1,f
  3856  02CB  30FF               	movlw	255
  3857  02CC  07C7               	addwf	___flmul@temp+1,f
  3858  02CD                     l1954:
  3859  02CD  1FC4               	btfss	___flmul@prod+2,7
  3860  02CE  2AD0               	goto	u2101
  3861  02CF  2AD1               	goto	u2100
  3862  02D0                     u2101:
  3863  02D0  2AB0               	goto	l1944
  3864  02D1                     u2100:
  3865  02D1                     l1956:
  3866  02D1  01C0               	clrf	___flmul@aexp
  3867  02D2                     l1958:
  3868  02D2  1FBF               	btfss	___flmul@grs+3,7
  3869  02D3  2AD5               	goto	u2111
  3870  02D4  2AD6               	goto	u2110
  3871  02D5                     u2111:
  3872  02D5  2AF2               	goto	l1966
  3873  02D6                     u2110:
  3874  02D6                     l1960:
  3875  02D6  30FF               	movlw	255
  3876  02D7  053C               	andwf	___flmul@grs,w
  3877  02D8  00B6               	movwf	??___flmul
  3878  02D9  30FF               	movlw	255
  3879  02DA  053D               	andwf	___flmul@grs+1,w
  3880  02DB  00B7               	movwf	??___flmul+1
  3881  02DC  30FF               	movlw	255
  3882  02DD  053E               	andwf	___flmul@grs+2,w
  3883  02DE  00B8               	movwf	??___flmul+2
  3884  02DF  307F               	movlw	127
  3885  02E0  053F               	andwf	___flmul@grs+3,w
  3886  02E1  00B9               	movwf	??___flmul+3
  3887  02E2  0839               	movf	??___flmul+3,w
  3888  02E3  0438               	iorwf	??___flmul+2,w
  3889  02E4  0437               	iorwf	??___flmul+1,w
  3890  02E5  0436               	iorwf	??___flmul,w
  3891  02E6  1903               	skipnz
  3892  02E7  2AE9               	goto	u2121
  3893  02E8  2AEA               	goto	u2120
  3894  02E9                     u2121:
  3895  02E9  2AED               	goto	l685
  3896  02EA                     u2120:
  3897  02EA                     l1962:
  3898  02EA  01C0               	clrf	___flmul@aexp
  3899  02EB  0AC0               	incf	___flmul@aexp,f
  3900  02EC  2AF2               	goto	l1966
  3901  02ED                     l685:
  3902  02ED  1C42               	btfss	___flmul@prod,0
  3903  02EE  2AF0               	goto	u2131
  3904  02EF  2AF1               	goto	u2130
  3905  02F0                     u2131:
  3906  02F0  2AF2               	goto	l1966
  3907  02F1                     u2130:
  3908  02F1  2AEA               	goto	l1962
  3909  02F2                     l1966:
  3910  02F2  0840               	movf	___flmul@aexp,w
  3911  02F3  1903               	btfsc	3,2
  3912  02F4  2AF6               	goto	u2141
  3913  02F5  2AF7               	goto	u2140
  3914  02F6                     u2141:
  3915  02F6  2B28               	goto	l1976
  3916  02F7                     u2140:
  3917  02F7                     l1968:
  3918  02F7  3001               	movlw	1
  3919  02F8  07C2               	addwf	___flmul@prod,f
  3920  02F9  3000               	movlw	0
  3921  02FA  1803               	skipnc
  3922  02FB  3001               	movlw	1
  3923  02FC  07C3               	addwf	___flmul@prod+1,f
  3924  02FD  3000               	movlw	0
  3925  02FE  1803               	skipnc
  3926  02FF  3001               	movlw	1
  3927  0300  07C4               	addwf	___flmul@prod+2,f
  3928  0301  3000               	movlw	0
  3929  0302  1803               	skipnc
  3930  0303  3001               	movlw	1
  3931  0304  07C5               	addwf	___flmul@prod+3,f
  3932  0305                     l1970:
  3933  0305  1C45               	btfss	___flmul@prod+3,0
  3934  0306  2B08               	goto	u2151
  3935  0307  2B09               	goto	u2150
  3936  0308                     u2151:
  3937  0308  2B28               	goto	l1976
  3938  0309                     u2150:
  3939  0309                     l1972:
  3940  0309  0842               	movf	___flmul@prod,w
  3941  030A  00B6               	movwf	??___flmul
  3942  030B  0843               	movf	___flmul@prod+1,w
  3943  030C  00B7               	movwf	??___flmul+1
  3944  030D  0844               	movf	___flmul@prod+2,w
  3945  030E  00B8               	movwf	??___flmul+2
  3946  030F  0845               	movf	___flmul@prod+3,w
  3947  0310  00B9               	movwf	??___flmul+3
  3948  0311  3001               	movlw	1
  3949  0312  00BA               	movwf	??___flmul+4
  3950  0313                     u2165:
  3951  0313  0D39               	rlf	??___flmul+3,w
  3952  0314  0CB9               	rrf	??___flmul+3,f
  3953  0315  0CB8               	rrf	??___flmul+2,f
  3954  0316  0CB7               	rrf	??___flmul+1,f
  3955  0317  0CB6               	rrf	??___flmul,f
  3956  0318                     u2160:
  3957  0318  0BBA               	decfsz	??___flmul+4,f
  3958  0319  2B13               	goto	u2165
  3959  031A  0839               	movf	??___flmul+3,w
  3960  031B  00C5               	movwf	___flmul@prod+3
  3961  031C  0838               	movf	??___flmul+2,w
  3962  031D  00C4               	movwf	___flmul@prod+2
  3963  031E  0837               	movf	??___flmul+1,w
  3964  031F  00C3               	movwf	___flmul@prod+1
  3965  0320  0836               	movf	??___flmul,w
  3966  0321  00C2               	movwf	___flmul@prod
  3967  0322                     l1974:
  3968  0322  3001               	movlw	1
  3969  0323  07C6               	addwf	___flmul@temp,f
  3970  0324  1803               	skipnc
  3971  0325  0AC7               	incf	___flmul@temp+1,f
  3972  0326  3000               	movlw	0
  3973  0327  07C7               	addwf	___flmul@temp+1,f
  3974  0328                     l1976:
  3975  0328  0847               	movf	___flmul@temp+1,w
  3976  0329  3A80               	xorlw	128
  3977  032A  00FF               	movwf	btemp+1
  3978  032B  3080               	movlw	128
  3979  032C  027F               	subwf	btemp+1,w
  3980  032D  1D03               	skipz
  3981  032E  2B31               	goto	u2175
  3982  032F  30FF               	movlw	255
  3983  0330  0246               	subwf	___flmul@temp,w
  3984  0331                     u2175:
  3985  0331  1C03               	skipc
  3986  0332  2B34               	goto	u2171
  3987  0333  2B35               	goto	u2170
  3988  0334                     u2171:
  3989  0334  2B40               	goto	l1980
  3990  0335                     u2170:
  3991  0335                     l1978:
  3992  0335  307F               	movlw	127
  3993  0336  1283               	bcf	3,5	;RP0=0, select bank0
  3994  0337  1303               	bcf	3,6	;RP1=0, select bank0
  3995  0338  00C5               	movwf	___flmul@prod+3
  3996  0339  3080               	movlw	128
  3997  033A  00C4               	movwf	___flmul@prod+2
  3998  033B  3000               	movlw	0
  3999  033C  00C3               	movwf	___flmul@prod+1
  4000  033D  3000               	movlw	0
  4001  033E  00C2               	movwf	___flmul@prod
  4002  033F  2B75               	goto	l691
  4003  0340                     l1980:
  4004  0340  1283               	bcf	3,5	;RP0=0, select bank0
  4005  0341  1303               	bcf	3,6	;RP1=0, select bank0
  4006  0342  0847               	movf	___flmul@temp+1,w
  4007  0343  3A80               	xorlw	128
  4008  0344  00FF               	movwf	btemp+1
  4009  0345  3080               	movlw	128
  4010  0346  027F               	subwf	btemp+1,w
  4011  0347  1D03               	skipz
  4012  0348  2B4B               	goto	u2185
  4013  0349  3001               	movlw	1
  4014  034A  0246               	subwf	___flmul@temp,w
  4015  034B                     u2185:
  4016  034B  1803               	skipnc
  4017  034C  2B4E               	goto	u2181
  4018  034D  2B4F               	goto	u2180
  4019  034E                     u2181:
  4020  034E  2B5B               	goto	l1986
  4021  034F                     u2180:
  4022  034F                     l1982:
  4023  034F  3000               	movlw	0
  4024  0350  1283               	bcf	3,5	;RP0=0, select bank0
  4025  0351  1303               	bcf	3,6	;RP1=0, select bank0
  4026  0352  00C5               	movwf	___flmul@prod+3
  4027  0353  3000               	movlw	0
  4028  0354  00C4               	movwf	___flmul@prod+2
  4029  0355  3000               	movlw	0
  4030  0356  00C3               	movwf	___flmul@prod+1
  4031  0357  3000               	movlw	0
  4032  0358  00C2               	movwf	___flmul@prod
  4033  0359                     l1984:
  4034  0359  01BB               	clrf	___flmul@sign
  4035  035A  2B75               	goto	l691
  4036  035B                     l1986:
  4037  035B  1283               	bcf	3,5	;RP0=0, select bank0
  4038  035C  1303               	bcf	3,6	;RP1=0, select bank0
  4039  035D  0846               	movf	___flmul@temp,w
  4040  035E  00B6               	movwf	??___flmul
  4041  035F  0836               	movf	??___flmul,w
  4042  0360  00C1               	movwf	___flmul@bexp
  4043  0361  30FF               	movlw	255
  4044  0362  05C2               	andwf	___flmul@prod,f
  4045  0363  30FF               	movlw	255
  4046  0364  05C3               	andwf	___flmul@prod+1,f
  4047  0365  307F               	movlw	127
  4048  0366  05C4               	andwf	___flmul@prod+2,f
  4049  0367  3000               	movlw	0
  4050  0368  05C5               	andwf	___flmul@prod+3,f
  4051  0369                     l1988:
  4052  0369  1C41               	btfss	___flmul@bexp,0
  4053  036A  2B6C               	goto	u2191
  4054  036B  2B6D               	goto	u2190
  4055  036C                     u2191:
  4056  036C  2B6E               	goto	l1992
  4057  036D                     u2190:
  4058  036D                     l1990:
  4059  036D  17C4               	bsf	___flmul@prod+2,7
  4060  036E                     l1992:
  4061  036E  0841               	movf	___flmul@bexp,w
  4062  036F  00B6               	movwf	??___flmul
  4063  0370  1003               	clrc
  4064  0371  0C36               	rrf	??___flmul,w
  4065  0372  00B7               	movwf	??___flmul+1
  4066  0373  0837               	movf	??___flmul+1,w
  4067  0374  00C5               	movwf	___flmul@prod+3
  4068  0375                     l691:
  4069  0375  083B               	movf	___flmul@sign,w
  4070  0376  00B6               	movwf	??___flmul
  4071  0377  0836               	movf	??___flmul,w
  4072  0378  04C5               	iorwf	___flmul@prod+3,f
  4073  0379                     l1994:
  4074  0379  0845               	movf	___flmul@prod+3,w
  4075  037A  00B1               	movwf	?___flmul+3
  4076  037B  0844               	movf	___flmul@prod+2,w
  4077  037C  00B0               	movwf	?___flmul+2
  4078  037D  0843               	movf	___flmul@prod+1,w
  4079  037E  00AF               	movwf	?___flmul+1
  4080  037F  0842               	movf	___flmul@prod,w
  4081  0380  00AE               	movwf	?___flmul
  4082  0381                     l679:
  4083  0381  0008               	return
  4084  0382                     __end_of___flmul:
  4085                           
  4086                           	psect	text12
  4087  0C7A                     __ptext12:	
  4088 ;; *************** function __Umul8_16 *****************
  4089 ;; Defined at:
  4090 ;;		line 4 in file "C:\Program Files\Microchip\xc8\v2.32\pic\sources\c90\common\Umul8_16.c"
  4091 ;; Parameters:    Size  Location     Type
  4092 ;;  multiplier      1    wreg     unsigned char 
  4093 ;;  multiplicand    1    0[BANK0 ] unsigned char 
  4094 ;; Auto vars:     Size  Location     Type
  4095 ;;  multiplier      1    8[BANK0 ] unsigned char 
  4096 ;;  word_mpld       2    6[BANK0 ] unsigned int 
  4097 ;;  product         2    4[BANK0 ] unsigned int 
  4098 ;; Return value:  Size  Location     Type
  4099 ;;                  2    0[BANK0 ] unsigned int 
  4100 ;; Registers used:
  4101 ;;		wreg, status,2, status,0
  4102 ;; Tracked objects:
  4103 ;;		On entry : 0/0
  4104 ;;		On exit  : 0/0
  4105 ;;		Unchanged: 0/0
  4106 ;; Data sizes:     COMMON   BANK0   BANK1   BANK3   BANK2
  4107 ;;      Params:         0       2       0       0       0
  4108 ;;      Locals:         0       5       0       0       0
  4109 ;;      Temps:          0       2       0       0       0
  4110 ;;      Totals:         0       9       0       0       0
  4111 ;;Total ram usage:        9 bytes
  4112 ;; Hardware stack levels used: 1
  4113 ;; Hardware stack levels required when called: 2
  4114 ;; This function calls:
  4115 ;;		Nothing
  4116 ;; This function is called by:
  4117 ;;		___flmul
  4118 ;; This function uses a non-reentrant model
  4119 ;;
  4120                           
  4121                           
  4122                           ;psect for function __Umul8_16
  4123  0C7A                     __Umul8_16:
  4124                           
  4125                           ;incstack = 0
  4126                           ; Regs used in __Umul8_16: [wreg+status,2+status,0]
  4127                           ;__Umul8_16@multiplier stored from wreg
  4128  0C7A  1283               	bcf	3,5	;RP0=0, select bank0
  4129  0C7B  1303               	bcf	3,6	;RP1=0, select bank0
  4130  0C7C  00A8               	movwf	__Umul8_16@multiplier
  4131  0C7D                     l1586:
  4132  0C7D  01A4               	clrf	__Umul8_16@product
  4133  0C7E  01A5               	clrf	__Umul8_16@product+1
  4134  0C7F                     l1588:
  4135  0C7F  0820               	movf	__Umul8_16@multiplicand,w
  4136  0C80  00A2               	movwf	??__Umul8_16
  4137  0C81  01A3               	clrf	??__Umul8_16+1
  4138  0C82  0822               	movf	??__Umul8_16,w
  4139  0C83  00A6               	movwf	__Umul8_16@word_mpld
  4140  0C84  0823               	movf	??__Umul8_16+1,w
  4141  0C85  00A7               	movwf	__Umul8_16@word_mpld+1
  4142  0C86                     l1590:
  4143  0C86  1C28               	btfss	__Umul8_16@multiplier,0
  4144  0C87  2C89               	goto	u1361
  4145  0C88  2C8A               	goto	u1360
  4146  0C89                     u1361:
  4147  0C89  2C90               	goto	l698
  4148  0C8A                     u1360:
  4149  0C8A                     l1592:
  4150  0C8A  0826               	movf	__Umul8_16@word_mpld,w
  4151  0C8B  07A4               	addwf	__Umul8_16@product,f
  4152  0C8C  1803               	skipnc
  4153  0C8D  0AA5               	incf	__Umul8_16@product+1,f
  4154  0C8E  0827               	movf	__Umul8_16@word_mpld+1,w
  4155  0C8F  07A5               	addwf	__Umul8_16@product+1,f
  4156  0C90                     l698:
  4157  0C90  3001               	movlw	1
  4158  0C91                     u1375:
  4159  0C91  1003               	clrc
  4160  0C92  0DA6               	rlf	__Umul8_16@word_mpld,f
  4161  0C93  0DA7               	rlf	__Umul8_16@word_mpld+1,f
  4162  0C94  3EFF               	addlw	-1
  4163  0C95  1D03               	skipz
  4164  0C96  2C91               	goto	u1375
  4165  0C97  1003               	clrc
  4166  0C98  0CA8               	rrf	__Umul8_16@multiplier,f
  4167  0C99                     l1594:
  4168  0C99  0828               	movf	__Umul8_16@multiplier,w
  4169  0C9A  1D03               	btfss	3,2
  4170  0C9B  2C9D               	goto	u1381
  4171  0C9C  2C9E               	goto	u1380
  4172  0C9D                     u1381:
  4173  0C9D  2C86               	goto	l1590
  4174  0C9E                     u1380:
  4175  0C9E                     l1596:
  4176  0C9E  0825               	movf	__Umul8_16@product+1,w
  4177  0C9F  00A1               	movwf	?__Umul8_16+1
  4178  0CA0  0824               	movf	__Umul8_16@product,w
  4179  0CA1  00A0               	movwf	?__Umul8_16
  4180  0CA2                     l700:
  4181  0CA2  0008               	return
  4182  0CA3                     __end_of__Umul8_16:
  4183                           
  4184                           	psect	text13
  4185  0E23                     __ptext13:	
  4186 ;; *************** function ___fldiv *****************
  4187 ;; Defined at:
  4188 ;;		line 8 in file "C:\Program Files\Microchip\xc8\v2.32\pic\sources\c90\common\sprcdiv.c"
  4189 ;; Parameters:    Size  Location     Type
  4190 ;;  a               4   40[BANK0 ] unsigned int 
  4191 ;;  b               4   44[BANK0 ] unsigned int 
  4192 ;; Auto vars:     Size  Location     Type
  4193 ;;  grs             4   60[BANK0 ] unsigned long 
  4194 ;;  rem             4   53[BANK0 ] unsigned long 
  4195 ;;  new_exp         2   58[BANK0 ] int 
  4196 ;;  aexp            1   65[BANK0 ] unsigned char 
  4197 ;;  bexp            1   64[BANK0 ] unsigned char 
  4198 ;;  sign            1   57[BANK0 ] unsigned char 
  4199 ;; Return value:  Size  Location     Type
  4200 ;;                  4   40[BANK0 ] unsigned char 
  4201 ;; Registers used:
  4202 ;;		wreg, status,2, status,0, btemp+1
  4203 ;; Tracked objects:
  4204 ;;		On entry : 0/0
  4205 ;;		On exit  : 0/0
  4206 ;;		Unchanged: 0/0
  4207 ;; Data sizes:     COMMON   BANK0   BANK1   BANK3   BANK2
  4208 ;;      Params:         0       8       0       0       0
  4209 ;;      Locals:         0      13       0       0       0
  4210 ;;      Temps:          0       5       0       0       0
  4211 ;;      Totals:         0      26       0       0       0
  4212 ;;Total ram usage:       26 bytes
  4213 ;; Hardware stack levels used: 1
  4214 ;; Hardware stack levels required when called: 2
  4215 ;; This function calls:
  4216 ;;		Nothing
  4217 ;; This function is called by:
  4218 ;;		_main
  4219 ;; This function uses a non-reentrant model
  4220 ;;
  4221                           
  4222                           
  4223                           ;psect for function ___fldiv
  4224  0E23                     ___fldiv:
  4225  0E23                     l1716:	
  4226                           ;incstack = 0
  4227                           ; Regs used in ___fldiv: [wreg+status,2+status,0+btemp+1]
  4228                           
  4229  0E23  1283               	bcf	3,5	;RP0=0, select bank0
  4230  0E24  1303               	bcf	3,6	;RP1=0, select bank0
  4231  0E25  084F               	movf	___fldiv@b+3,w
  4232  0E26  3980               	andlw	128
  4233  0E27  00D0               	movwf	??___fldiv
  4234  0E28  0850               	movf	??___fldiv,w
  4235  0E29  00D9               	movwf	___fldiv@sign
  4236  0E2A                     l1718:
  4237  0E2A  084F               	movf	___fldiv@b+3,w
  4238  0E2B  00D0               	movwf	??___fldiv
  4239  0E2C  0750               	addwf	??___fldiv,w
  4240  0E2D  00D1               	movwf	??___fldiv+1
  4241  0E2E  0851               	movf	??___fldiv+1,w
  4242  0E2F  00E0               	movwf	___fldiv@bexp
  4243  0E30                     l1720:
  4244  0E30  1FCE               	btfss	___fldiv@b+2,7
  4245  0E31  2E33               	goto	u1541
  4246  0E32  2E34               	goto	u1540
  4247  0E33                     u1541:
  4248  0E33  2E35               	goto	l1724
  4249  0E34                     u1540:
  4250  0E34                     l1722:
  4251  0E34  1460               	bsf	___fldiv@bexp,0
  4252  0E35                     l1724:
  4253  0E35  0860               	movf	___fldiv@bexp,w
  4254  0E36  1903               	btfsc	3,2
  4255  0E37  2E39               	goto	u1551
  4256  0E38  2E3A               	goto	u1550
  4257  0E39                     u1551:
  4258  0E39  2E4A               	goto	l1734
  4259  0E3A                     u1550:
  4260  0E3A                     l1726:
  4261  0E3A  0A60               	incf	___fldiv@bexp,w
  4262  0E3B  1D03               	btfss	3,2
  4263  0E3C  2E3E               	goto	u1561
  4264  0E3D  2E3F               	goto	u1560
  4265  0E3E                     u1561:
  4266  0E3E  2E47               	goto	l1730
  4267  0E3F                     u1560:
  4268  0E3F                     l1728:
  4269  0E3F  3000               	movlw	0
  4270  0E40  00CF               	movwf	___fldiv@b+3
  4271  0E41  3000               	movlw	0
  4272  0E42  00CE               	movwf	___fldiv@b+2
  4273  0E43  3000               	movlw	0
  4274  0E44  00CD               	movwf	___fldiv@b+1
  4275  0E45  3000               	movlw	0
  4276  0E46  00CC               	movwf	___fldiv@b
  4277  0E47                     l1730:
  4278  0E47  17CE               	bsf	___fldiv@b+2,7
  4279  0E48                     l1732:
  4280  0E48  01CF               	clrf	___fldiv@b+3
  4281  0E49  2E52               	goto	l1736
  4282  0E4A                     l1734:
  4283  0E4A  3000               	movlw	0
  4284  0E4B  00CF               	movwf	___fldiv@b+3
  4285  0E4C  3000               	movlw	0
  4286  0E4D  00CE               	movwf	___fldiv@b+2
  4287  0E4E  3000               	movlw	0
  4288  0E4F  00CD               	movwf	___fldiv@b+1
  4289  0E50  3000               	movlw	0
  4290  0E51  00CC               	movwf	___fldiv@b
  4291  0E52                     l1736:
  4292  0E52  084B               	movf	___fldiv@a+3,w
  4293  0E53  3980               	andlw	128
  4294  0E54  00D0               	movwf	??___fldiv
  4295  0E55  0850               	movf	??___fldiv,w
  4296  0E56  06D9               	xorwf	___fldiv@sign,f
  4297  0E57                     l1738:
  4298  0E57  084B               	movf	___fldiv@a+3,w
  4299  0E58  00D0               	movwf	??___fldiv
  4300  0E59  0750               	addwf	??___fldiv,w
  4301  0E5A  00D1               	movwf	??___fldiv+1
  4302  0E5B  0851               	movf	??___fldiv+1,w
  4303  0E5C  00E1               	movwf	___fldiv@aexp
  4304  0E5D                     l1740:
  4305  0E5D  1FCA               	btfss	___fldiv@a+2,7
  4306  0E5E  2E60               	goto	u1571
  4307  0E5F  2E61               	goto	u1570
  4308  0E60                     u1571:
  4309  0E60  2E62               	goto	l1744
  4310  0E61                     u1570:
  4311  0E61                     l1742:
  4312  0E61  1461               	bsf	___fldiv@aexp,0
  4313  0E62                     l1744:
  4314  0E62  0861               	movf	___fldiv@aexp,w
  4315  0E63  1903               	btfsc	3,2
  4316  0E64  2E66               	goto	u1581
  4317  0E65  2E67               	goto	u1580
  4318  0E66                     u1581:
  4319  0E66  2E77               	goto	l1754
  4320  0E67                     u1580:
  4321  0E67                     l1746:
  4322  0E67  0A61               	incf	___fldiv@aexp,w
  4323  0E68  1D03               	btfss	3,2
  4324  0E69  2E6B               	goto	u1591
  4325  0E6A  2E6C               	goto	u1590
  4326  0E6B                     u1591:
  4327  0E6B  2E74               	goto	l1750
  4328  0E6C                     u1590:
  4329  0E6C                     l1748:
  4330  0E6C  3000               	movlw	0
  4331  0E6D  00CB               	movwf	___fldiv@a+3
  4332  0E6E  3000               	movlw	0
  4333  0E6F  00CA               	movwf	___fldiv@a+2
  4334  0E70  3000               	movlw	0
  4335  0E71  00C9               	movwf	___fldiv@a+1
  4336  0E72  3000               	movlw	0
  4337  0E73  00C8               	movwf	___fldiv@a
  4338  0E74                     l1750:
  4339  0E74  17CA               	bsf	___fldiv@a+2,7
  4340  0E75                     l1752:
  4341  0E75  01CB               	clrf	___fldiv@a+3
  4342  0E76  2E7F               	goto	l639
  4343  0E77                     l1754:
  4344  0E77  3000               	movlw	0
  4345  0E78  00CB               	movwf	___fldiv@a+3
  4346  0E79  3000               	movlw	0
  4347  0E7A  00CA               	movwf	___fldiv@a+2
  4348  0E7B  3000               	movlw	0
  4349  0E7C  00C9               	movwf	___fldiv@a+1
  4350  0E7D  3000               	movlw	0
  4351  0E7E  00C8               	movwf	___fldiv@a
  4352  0E7F                     l639:
  4353  0E7F  084B               	movf	___fldiv@a+3,w
  4354  0E80  044A               	iorwf	___fldiv@a+2,w
  4355  0E81  0449               	iorwf	___fldiv@a+1,w
  4356  0E82  0448               	iorwf	___fldiv@a,w
  4357  0E83  1D03               	skipz
  4358  0E84  2E86               	goto	u1601
  4359  0E85  2E87               	goto	u1600
  4360  0E86                     u1601:
  4361  0E86  2EA0               	goto	l1764
  4362  0E87                     u1600:
  4363  0E87                     l1756:
  4364  0E87  3000               	movlw	0
  4365  0E88  00CF               	movwf	___fldiv@b+3
  4366  0E89  3000               	movlw	0
  4367  0E8A  00CE               	movwf	___fldiv@b+2
  4368  0E8B  3000               	movlw	0
  4369  0E8C  00CD               	movwf	___fldiv@b+1
  4370  0E8D  3000               	movlw	0
  4371  0E8E  00CC               	movwf	___fldiv@b
  4372  0E8F  3080               	movlw	128
  4373  0E90  04CE               	iorwf	___fldiv@b+2,f
  4374  0E91  307F               	movlw	127
  4375  0E92  04CF               	iorwf	___fldiv@b+3,f
  4376  0E93                     l1758:
  4377  0E93  0859               	movf	___fldiv@sign,w
  4378  0E94  00D0               	movwf	??___fldiv
  4379  0E95  0850               	movf	??___fldiv,w
  4380  0E96  04CF               	iorwf	___fldiv@b+3,f
  4381  0E97                     l1760:
  4382  0E97  084F               	movf	___fldiv@b+3,w
  4383  0E98  00CB               	movwf	?___fldiv+3
  4384  0E99  084E               	movf	___fldiv@b+2,w
  4385  0E9A  00CA               	movwf	?___fldiv+2
  4386  0E9B  084D               	movf	___fldiv@b+1,w
  4387  0E9C  00C9               	movwf	?___fldiv+1
  4388  0E9D  084C               	movf	___fldiv@b,w
  4389  0E9E  00C8               	movwf	?___fldiv
  4390  0E9F  2FFF               	goto	l641
  4391  0EA0                     l1764:
  4392  0EA0  0860               	movf	___fldiv@bexp,w
  4393  0EA1  1D03               	btfss	3,2
  4394  0EA2  2EA4               	goto	u1611
  4395  0EA3  2EA5               	goto	u1610
  4396  0EA4                     u1611:
  4397  0EA4  2EAE               	goto	l1770
  4398  0EA5                     u1610:
  4399  0EA5                     l1766:
  4400  0EA5  3000               	movlw	0
  4401  0EA6  00CB               	movwf	?___fldiv+3
  4402  0EA7  3000               	movlw	0
  4403  0EA8  00CA               	movwf	?___fldiv+2
  4404  0EA9  3000               	movlw	0
  4405  0EAA  00C9               	movwf	?___fldiv+1
  4406  0EAB  3000               	movlw	0
  4407  0EAC  00C8               	movwf	?___fldiv
  4408  0EAD  2FFF               	goto	l641
  4409  0EAE                     l1770:
  4410  0EAE  0860               	movf	___fldiv@bexp,w
  4411  0EAF  00D0               	movwf	??___fldiv
  4412  0EB0  01D1               	clrf	??___fldiv+1
  4413  0EB1  0851               	movf	??___fldiv+1,w
  4414  0EB2  00D3               	movwf	??___fldiv+3
  4415  0EB3  0861               	movf	___fldiv@aexp,w
  4416  0EB4  0250               	subwf	??___fldiv,w
  4417  0EB5  00D2               	movwf	??___fldiv+2
  4418  0EB6  1C03               	skipc
  4419  0EB7  03D3               	decf	??___fldiv+3,f
  4420  0EB8  0852               	movf	??___fldiv+2,w
  4421  0EB9  3E7F               	addlw	127
  4422  0EBA  00DA               	movwf	___fldiv@new_exp
  4423  0EBB  0853               	movf	??___fldiv+3,w
  4424  0EBC  1803               	skipnc
  4425  0EBD  3E01               	addlw	1
  4426  0EBE  3E00               	addlw	0
  4427  0EBF  00DB               	movwf	___fldiv@new_exp+1
  4428  0EC0                     l1772:
  4429  0EC0  084F               	movf	___fldiv@b+3,w
  4430  0EC1  00D8               	movwf	___fldiv@rem+3
  4431  0EC2  084E               	movf	___fldiv@b+2,w
  4432  0EC3  00D7               	movwf	___fldiv@rem+2
  4433  0EC4  084D               	movf	___fldiv@b+1,w
  4434  0EC5  00D6               	movwf	___fldiv@rem+1
  4435  0EC6  084C               	movf	___fldiv@b,w
  4436  0EC7  00D5               	movwf	___fldiv@rem
  4437  0EC8                     l1774:
  4438  0EC8  3000               	movlw	0
  4439  0EC9  00CF               	movwf	___fldiv@b+3
  4440  0ECA  3000               	movlw	0
  4441  0ECB  00CE               	movwf	___fldiv@b+2
  4442  0ECC  3000               	movlw	0
  4443  0ECD  00CD               	movwf	___fldiv@b+1
  4444  0ECE  3000               	movlw	0
  4445  0ECF  00CC               	movwf	___fldiv@b
  4446  0ED0                     l1776:
  4447  0ED0  3000               	movlw	0
  4448  0ED1  00DF               	movwf	___fldiv@grs+3
  4449  0ED2  3000               	movlw	0
  4450  0ED3  00DE               	movwf	___fldiv@grs+2
  4451  0ED4  3000               	movlw	0
  4452  0ED5  00DD               	movwf	___fldiv@grs+1
  4453  0ED6  3000               	movlw	0
  4454  0ED7  00DC               	movwf	___fldiv@grs
  4455  0ED8                     l1778:
  4456  0ED8  01E1               	clrf	___fldiv@aexp
  4457  0ED9  2F24               	goto	l1798
  4458  0EDA                     l1780:
  4459  0EDA  0861               	movf	___fldiv@aexp,w
  4460  0EDB  1903               	btfsc	3,2
  4461  0EDC  2EDE               	goto	u1621
  4462  0EDD  2EDF               	goto	u1620
  4463  0EDE                     u1621:
  4464  0EDE  2EFF               	goto	l1790
  4465  0EDF                     u1620:
  4466  0EDF                     l1782:
  4467  0EDF  3001               	movlw	1
  4468  0EE0  00D0               	movwf	??___fldiv
  4469  0EE1                     u1635:
  4470  0EE1  1003               	clrc
  4471  0EE2  0DD5               	rlf	___fldiv@rem,f
  4472  0EE3  0DD6               	rlf	___fldiv@rem+1,f
  4473  0EE4  0DD7               	rlf	___fldiv@rem+2,f
  4474  0EE5  0DD8               	rlf	___fldiv@rem+3,f
  4475  0EE6  0BD0               	decfsz	??___fldiv,f
  4476  0EE7  2EE1               	goto	u1635
  4477  0EE8  3001               	movlw	1
  4478  0EE9  00D0               	movwf	??___fldiv
  4479  0EEA                     u1645:
  4480  0EEA  1003               	clrc
  4481  0EEB  0DCC               	rlf	___fldiv@b,f
  4482  0EEC  0DCD               	rlf	___fldiv@b+1,f
  4483  0EED  0DCE               	rlf	___fldiv@b+2,f
  4484  0EEE  0DCF               	rlf	___fldiv@b+3,f
  4485  0EEF  0BD0               	decfsz	??___fldiv,f
  4486  0EF0  2EEA               	goto	u1645
  4487  0EF1                     l1784:
  4488  0EF1  1FDF               	btfss	___fldiv@grs+3,7
  4489  0EF2  2EF4               	goto	u1651
  4490  0EF3  2EF5               	goto	u1650
  4491  0EF4                     u1651:
  4492  0EF4  2EF6               	goto	l1788
  4493  0EF5                     u1650:
  4494  0EF5                     l1786:
  4495  0EF5  144C               	bsf	___fldiv@b,0
  4496  0EF6                     l1788:
  4497  0EF6  3001               	movlw	1
  4498  0EF7  00D0               	movwf	??___fldiv
  4499  0EF8                     u1665:
  4500  0EF8  1003               	clrc
  4501  0EF9  0DDC               	rlf	___fldiv@grs,f
  4502  0EFA  0DDD               	rlf	___fldiv@grs+1,f
  4503  0EFB  0DDE               	rlf	___fldiv@grs+2,f
  4504  0EFC  0DDF               	rlf	___fldiv@grs+3,f
  4505  0EFD  0BD0               	decfsz	??___fldiv,f
  4506  0EFE  2EF8               	goto	u1665
  4507  0EFF                     l1790:
  4508  0EFF  084B               	movf	___fldiv@a+3,w
  4509  0F00  0258               	subwf	___fldiv@rem+3,w
  4510  0F01  1D03               	skipz
  4511  0F02  2F0D               	goto	u1675
  4512  0F03  084A               	movf	___fldiv@a+2,w
  4513  0F04  0257               	subwf	___fldiv@rem+2,w
  4514  0F05  1D03               	skipz
  4515  0F06  2F0D               	goto	u1675
  4516  0F07  0849               	movf	___fldiv@a+1,w
  4517  0F08  0256               	subwf	___fldiv@rem+1,w
  4518  0F09  1D03               	skipz
  4519  0F0A  2F0D               	goto	u1675
  4520  0F0B  0848               	movf	___fldiv@a,w
  4521  0F0C  0255               	subwf	___fldiv@rem,w
  4522  0F0D                     u1675:
  4523  0F0D  1C03               	skipc
  4524  0F0E  2F10               	goto	u1671
  4525  0F0F  2F11               	goto	u1670
  4526  0F10                     u1671:
  4527  0F10  2F20               	goto	l1796
  4528  0F11                     u1670:
  4529  0F11                     l1792:
  4530  0F11  175F               	bsf	___fldiv@grs+3,6
  4531  0F12                     l1794:
  4532  0F12  0848               	movf	___fldiv@a,w
  4533  0F13  02D5               	subwf	___fldiv@rem,f
  4534  0F14  0849               	movf	___fldiv@a+1,w
  4535  0F15  1C03               	skipc
  4536  0F16  0F49               	incfsz	___fldiv@a+1,w
  4537  0F17  02D6               	subwf	___fldiv@rem+1,f
  4538  0F18  084A               	movf	___fldiv@a+2,w
  4539  0F19  1C03               	skipc
  4540  0F1A  0F4A               	incfsz	___fldiv@a+2,w
  4541  0F1B  02D7               	subwf	___fldiv@rem+2,f
  4542  0F1C  084B               	movf	___fldiv@a+3,w
  4543  0F1D  1C03               	skipc
  4544  0F1E  0F4B               	incfsz	___fldiv@a+3,w
  4545  0F1F  02D8               	subwf	___fldiv@rem+3,f
  4546  0F20                     l1796:
  4547  0F20  3001               	movlw	1
  4548  0F21  00D0               	movwf	??___fldiv
  4549  0F22  0850               	movf	??___fldiv,w
  4550  0F23  07E1               	addwf	___fldiv@aexp,f
  4551  0F24                     l1798:
  4552  0F24  301A               	movlw	26
  4553  0F25  0261               	subwf	___fldiv@aexp,w
  4554  0F26  1C03               	skipc
  4555  0F27  2F29               	goto	u1681
  4556  0F28  2F2A               	goto	u1680
  4557  0F29                     u1681:
  4558  0F29  2EDA               	goto	l1780
  4559  0F2A                     u1680:
  4560  0F2A                     l1800:
  4561  0F2A  0858               	movf	___fldiv@rem+3,w
  4562  0F2B  0457               	iorwf	___fldiv@rem+2,w
  4563  0F2C  0456               	iorwf	___fldiv@rem+1,w
  4564  0F2D  0455               	iorwf	___fldiv@rem,w
  4565  0F2E  1903               	skipnz
  4566  0F2F  2F31               	goto	u1691
  4567  0F30  2F32               	goto	u1690
  4568  0F31                     u1691:
  4569  0F31  2F51               	goto	l1814
  4570  0F32                     u1690:
  4571  0F32                     l1802:
  4572  0F32  145C               	bsf	___fldiv@grs,0
  4573  0F33  2F51               	goto	l1814
  4574  0F34                     l1804:
  4575  0F34  3001               	movlw	1
  4576  0F35  00D0               	movwf	??___fldiv
  4577  0F36                     u1705:
  4578  0F36  1003               	clrc
  4579  0F37  0DCC               	rlf	___fldiv@b,f
  4580  0F38  0DCD               	rlf	___fldiv@b+1,f
  4581  0F39  0DCE               	rlf	___fldiv@b+2,f
  4582  0F3A  0DCF               	rlf	___fldiv@b+3,f
  4583  0F3B  0BD0               	decfsz	??___fldiv,f
  4584  0F3C  2F36               	goto	u1705
  4585  0F3D                     l1806:
  4586  0F3D  1FDF               	btfss	___fldiv@grs+3,7
  4587  0F3E  2F40               	goto	u1711
  4588  0F3F  2F41               	goto	u1710
  4589  0F40                     u1711:
  4590  0F40  2F42               	goto	l1810
  4591  0F41                     u1710:
  4592  0F41                     l1808:
  4593  0F41  144C               	bsf	___fldiv@b,0
  4594  0F42                     l1810:
  4595  0F42  3001               	movlw	1
  4596  0F43  00D0               	movwf	??___fldiv
  4597  0F44                     u1725:
  4598  0F44  1003               	clrc
  4599  0F45  0DDC               	rlf	___fldiv@grs,f
  4600  0F46  0DDD               	rlf	___fldiv@grs+1,f
  4601  0F47  0DDE               	rlf	___fldiv@grs+2,f
  4602  0F48  0DDF               	rlf	___fldiv@grs+3,f
  4603  0F49  0BD0               	decfsz	??___fldiv,f
  4604  0F4A  2F44               	goto	u1725
  4605  0F4B                     l1812:
  4606  0F4B  30FF               	movlw	255
  4607  0F4C  07DA               	addwf	___fldiv@new_exp,f
  4608  0F4D  1803               	skipnc
  4609  0F4E  0ADB               	incf	___fldiv@new_exp+1,f
  4610  0F4F  30FF               	movlw	255
  4611  0F50  07DB               	addwf	___fldiv@new_exp+1,f
  4612  0F51                     l1814:
  4613  0F51  1FCE               	btfss	___fldiv@b+2,7
  4614  0F52  2F54               	goto	u1731
  4615  0F53  2F55               	goto	u1730
  4616  0F54                     u1731:
  4617  0F54  2F34               	goto	l1804
  4618  0F55                     u1730:
  4619  0F55                     l1816:
  4620  0F55  01E1               	clrf	___fldiv@aexp
  4621  0F56                     l1818:
  4622  0F56  1FDF               	btfss	___fldiv@grs+3,7
  4623  0F57  2F59               	goto	u1741
  4624  0F58  2F5A               	goto	u1740
  4625  0F59                     u1741:
  4626  0F59  2F76               	goto	l1826
  4627  0F5A                     u1740:
  4628  0F5A                     l1820:
  4629  0F5A  30FF               	movlw	255
  4630  0F5B  055C               	andwf	___fldiv@grs,w
  4631  0F5C  00D0               	movwf	??___fldiv
  4632  0F5D  30FF               	movlw	255
  4633  0F5E  055D               	andwf	___fldiv@grs+1,w
  4634  0F5F  00D1               	movwf	??___fldiv+1
  4635  0F60  30FF               	movlw	255
  4636  0F61  055E               	andwf	___fldiv@grs+2,w
  4637  0F62  00D2               	movwf	??___fldiv+2
  4638  0F63  307F               	movlw	127
  4639  0F64  055F               	andwf	___fldiv@grs+3,w
  4640  0F65  00D3               	movwf	??___fldiv+3
  4641  0F66  0853               	movf	??___fldiv+3,w
  4642  0F67  0452               	iorwf	??___fldiv+2,w
  4643  0F68  0451               	iorwf	??___fldiv+1,w
  4644  0F69  0450               	iorwf	??___fldiv,w
  4645  0F6A  1903               	skipnz
  4646  0F6B  2F6D               	goto	u1751
  4647  0F6C  2F6E               	goto	u1750
  4648  0F6D                     u1751:
  4649  0F6D  2F71               	goto	l655
  4650  0F6E                     u1750:
  4651  0F6E                     l1822:
  4652  0F6E  01E1               	clrf	___fldiv@aexp
  4653  0F6F  0AE1               	incf	___fldiv@aexp,f
  4654  0F70  2F76               	goto	l1826
  4655  0F71                     l655:
  4656  0F71  1C4C               	btfss	___fldiv@b,0
  4657  0F72  2F74               	goto	u1761
  4658  0F73  2F75               	goto	u1760
  4659  0F74                     u1761:
  4660  0F74  2F76               	goto	l1826
  4661  0F75                     u1760:
  4662  0F75  2F6E               	goto	l1822
  4663  0F76                     l1826:
  4664  0F76  0861               	movf	___fldiv@aexp,w
  4665  0F77  1903               	btfsc	3,2
  4666  0F78  2F7A               	goto	u1771
  4667  0F79  2F7B               	goto	u1770
  4668  0F7A                     u1771:
  4669  0F7A  2FAC               	goto	l1836
  4670  0F7B                     u1770:
  4671  0F7B                     l1828:
  4672  0F7B  3001               	movlw	1
  4673  0F7C  07CC               	addwf	___fldiv@b,f
  4674  0F7D  3000               	movlw	0
  4675  0F7E  1803               	skipnc
  4676  0F7F  3001               	movlw	1
  4677  0F80  07CD               	addwf	___fldiv@b+1,f
  4678  0F81  3000               	movlw	0
  4679  0F82  1803               	skipnc
  4680  0F83  3001               	movlw	1
  4681  0F84  07CE               	addwf	___fldiv@b+2,f
  4682  0F85  3000               	movlw	0
  4683  0F86  1803               	skipnc
  4684  0F87  3001               	movlw	1
  4685  0F88  07CF               	addwf	___fldiv@b+3,f
  4686  0F89                     l1830:
  4687  0F89  1C4F               	btfss	___fldiv@b+3,0
  4688  0F8A  2F8C               	goto	u1781
  4689  0F8B  2F8D               	goto	u1780
  4690  0F8C                     u1781:
  4691  0F8C  2FAC               	goto	l1836
  4692  0F8D                     u1780:
  4693  0F8D                     l1832:
  4694  0F8D  084C               	movf	___fldiv@b,w
  4695  0F8E  00D0               	movwf	??___fldiv
  4696  0F8F  084D               	movf	___fldiv@b+1,w
  4697  0F90  00D1               	movwf	??___fldiv+1
  4698  0F91  084E               	movf	___fldiv@b+2,w
  4699  0F92  00D2               	movwf	??___fldiv+2
  4700  0F93  084F               	movf	___fldiv@b+3,w
  4701  0F94  00D3               	movwf	??___fldiv+3
  4702  0F95  3001               	movlw	1
  4703  0F96  00D4               	movwf	??___fldiv+4
  4704  0F97                     u1795:
  4705  0F97  0D53               	rlf	??___fldiv+3,w
  4706  0F98  0CD3               	rrf	??___fldiv+3,f
  4707  0F99  0CD2               	rrf	??___fldiv+2,f
  4708  0F9A  0CD1               	rrf	??___fldiv+1,f
  4709  0F9B  0CD0               	rrf	??___fldiv,f
  4710  0F9C                     u1790:
  4711  0F9C  0BD4               	decfsz	??___fldiv+4,f
  4712  0F9D  2F97               	goto	u1795
  4713  0F9E  0853               	movf	??___fldiv+3,w
  4714  0F9F  00CF               	movwf	___fldiv@b+3
  4715  0FA0  0852               	movf	??___fldiv+2,w
  4716  0FA1  00CE               	movwf	___fldiv@b+2
  4717  0FA2  0851               	movf	??___fldiv+1,w
  4718  0FA3  00CD               	movwf	___fldiv@b+1
  4719  0FA4  0850               	movf	??___fldiv,w
  4720  0FA5  00CC               	movwf	___fldiv@b
  4721  0FA6                     l1834:
  4722  0FA6  3001               	movlw	1
  4723  0FA7  07DA               	addwf	___fldiv@new_exp,f
  4724  0FA8  1803               	skipnc
  4725  0FA9  0ADB               	incf	___fldiv@new_exp+1,f
  4726  0FAA  3000               	movlw	0
  4727  0FAB  07DB               	addwf	___fldiv@new_exp+1,f
  4728  0FAC                     l1836:
  4729  0FAC  085B               	movf	___fldiv@new_exp+1,w
  4730  0FAD  3A80               	xorlw	128
  4731  0FAE  00FF               	movwf	btemp+1
  4732  0FAF  3080               	movlw	128
  4733  0FB0  027F               	subwf	btemp+1,w
  4734  0FB1  1D03               	skipz
  4735  0FB2  2FB5               	goto	u1805
  4736  0FB3  30FF               	movlw	255
  4737  0FB4  025A               	subwf	___fldiv@new_exp,w
  4738  0FB5                     u1805:
  4739  0FB5  1C03               	skipc
  4740  0FB6  2FB8               	goto	u1801
  4741  0FB7  2FB9               	goto	u1800
  4742  0FB8                     u1801:
  4743  0FB8  2FC7               	goto	l1840
  4744  0FB9                     u1800:
  4745  0FB9                     l1838:
  4746  0FB9  30FF               	movlw	255
  4747  0FBA  1283               	bcf	3,5	;RP0=0, select bank0
  4748  0FBB  1303               	bcf	3,6	;RP1=0, select bank0
  4749  0FBC  00DA               	movwf	___fldiv@new_exp
  4750  0FBD  3000               	movlw	0
  4751  0FBE  00DB               	movwf	___fldiv@new_exp+1
  4752  0FBF  3000               	movlw	0
  4753  0FC0  00CF               	movwf	___fldiv@b+3
  4754  0FC1  3000               	movlw	0
  4755  0FC2  00CE               	movwf	___fldiv@b+2
  4756  0FC3  3000               	movlw	0
  4757  0FC4  00CD               	movwf	___fldiv@b+1
  4758  0FC5  3000               	movlw	0
  4759  0FC6  00CC               	movwf	___fldiv@b
  4760  0FC7                     l1840:
  4761  0FC7  1283               	bcf	3,5	;RP0=0, select bank0
  4762  0FC8  1303               	bcf	3,6	;RP1=0, select bank0
  4763  0FC9  085B               	movf	___fldiv@new_exp+1,w
  4764  0FCA  3A80               	xorlw	128
  4765  0FCB  00FF               	movwf	btemp+1
  4766  0FCC  3080               	movlw	128
  4767  0FCD  027F               	subwf	btemp+1,w
  4768  0FCE  1D03               	skipz
  4769  0FCF  2FD2               	goto	u1815
  4770  0FD0  3001               	movlw	1
  4771  0FD1  025A               	subwf	___fldiv@new_exp,w
  4772  0FD2                     u1815:
  4773  0FD2  1803               	skipnc
  4774  0FD3  2FD5               	goto	u1811
  4775  0FD4  2FD6               	goto	u1810
  4776  0FD5                     u1811:
  4777  0FD5  2FE3               	goto	l661
  4778  0FD6                     u1810:
  4779  0FD6                     l1842:
  4780  0FD6  1283               	bcf	3,5	;RP0=0, select bank0
  4781  0FD7  1303               	bcf	3,6	;RP1=0, select bank0
  4782  0FD8  01DA               	clrf	___fldiv@new_exp
  4783  0FD9  01DB               	clrf	___fldiv@new_exp+1
  4784  0FDA                     l1844:
  4785  0FDA  3000               	movlw	0
  4786  0FDB  00CF               	movwf	___fldiv@b+3
  4787  0FDC  3000               	movlw	0
  4788  0FDD  00CE               	movwf	___fldiv@b+2
  4789  0FDE  3000               	movlw	0
  4790  0FDF  00CD               	movwf	___fldiv@b+1
  4791  0FE0  3000               	movlw	0
  4792  0FE1  00CC               	movwf	___fldiv@b
  4793  0FE2                     l1846:
  4794  0FE2  01D9               	clrf	___fldiv@sign
  4795  0FE3                     l661:
  4796  0FE3  1283               	bcf	3,5	;RP0=0, select bank0
  4797  0FE4  1303               	bcf	3,6	;RP1=0, select bank0
  4798  0FE5  085A               	movf	___fldiv@new_exp,w
  4799  0FE6  00D0               	movwf	??___fldiv
  4800  0FE7  0850               	movf	??___fldiv,w
  4801  0FE8  00E0               	movwf	___fldiv@bexp
  4802  0FE9                     l1848:
  4803  0FE9  1C60               	btfss	___fldiv@bexp,0
  4804  0FEA  2FEC               	goto	u1821
  4805  0FEB  2FED               	goto	u1820
  4806  0FEC                     u1821:
  4807  0FEC  2FEF               	goto	l1852
  4808  0FED                     u1820:
  4809  0FED                     l1850:
  4810  0FED  17CE               	bsf	___fldiv@b+2,7
  4811  0FEE  2FF3               	goto	l663
  4812  0FEF                     l1852:
  4813  0FEF  307F               	movlw	127
  4814  0FF0  00D0               	movwf	??___fldiv
  4815  0FF1  0850               	movf	??___fldiv,w
  4816  0FF2  05CE               	andwf	___fldiv@b+2,f
  4817  0FF3                     l663:
  4818  0FF3  0860               	movf	___fldiv@bexp,w
  4819  0FF4  00D0               	movwf	??___fldiv
  4820  0FF5  1003               	clrc
  4821  0FF6  0C50               	rrf	??___fldiv,w
  4822  0FF7  00D1               	movwf	??___fldiv+1
  4823  0FF8  0851               	movf	??___fldiv+1,w
  4824  0FF9  00CF               	movwf	___fldiv@b+3
  4825  0FFA  0859               	movf	___fldiv@sign,w
  4826  0FFB  00D0               	movwf	??___fldiv
  4827  0FFC  0850               	movf	??___fldiv,w
  4828  0FFD  04CF               	iorwf	___fldiv@b+3,f
  4829  0FFE  2E97               	goto	l1760
  4830  0FFF                     l641:
  4831  0FFF  0008               	return
  4832  1000                     __end_of___fldiv:
  4833                           
  4834                           	psect	text14
  4835  0B9A                     __ptext14:	
  4836 ;; *************** function _UART_Write_Char *****************
  4837 ;; Defined at:
  4838 ;;		line 98 in file "Digital2_toolbox.c"
  4839 ;; Parameters:    Size  Location     Type
  4840 ;;  character       1    wreg     unsigned char 
  4841 ;; Auto vars:     Size  Location     Type
  4842 ;;  character       1    0[BANK0 ] unsigned char 
  4843 ;; Return value:  Size  Location     Type
  4844 ;;                  1    wreg      void 
  4845 ;; Registers used:
  4846 ;;		wreg
  4847 ;; Tracked objects:
  4848 ;;		On entry : 0/0
  4849 ;;		On exit  : 0/0
  4850 ;;		Unchanged: 0/0
  4851 ;; Data sizes:     COMMON   BANK0   BANK1   BANK3   BANK2
  4852 ;;      Params:         0       0       0       0       0
  4853 ;;      Locals:         0       1       0       0       0
  4854 ;;      Temps:          0       0       0       0       0
  4855 ;;      Totals:         0       1       0       0       0
  4856 ;;Total ram usage:        1 bytes
  4857 ;; Hardware stack levels used: 1
  4858 ;; Hardware stack levels required when called: 2
  4859 ;; This function calls:
  4860 ;;		Nothing
  4861 ;; This function is called by:
  4862 ;;		_main
  4863 ;; This function uses a non-reentrant model
  4864 ;;
  4865                           
  4866                           
  4867                           ;psect for function _UART_Write_Char
  4868  0B9A                     _UART_Write_Char:
  4869                           
  4870                           ;incstack = 0
  4871                           ; Regs used in _UART_Write_Char: [wreg]
  4872                           ;UART_Write_Char@character stored from wreg
  4873  0B9A  1283               	bcf	3,5	;RP0=0, select bank0
  4874  0B9B  1303               	bcf	3,6	;RP1=0, select bank0
  4875  0B9C  00A0               	movwf	UART_Write_Char@character
  4876  0B9D                     l1666:
  4877                           
  4878                           ;Digital2_toolbox.c: 99:     TXREG = character;
  4879  0B9D  0820               	movf	UART_Write_Char@character,w
  4880  0B9E  0099               	movwf	25	;volatile
  4881  0B9F                     l201:	
  4882                           ;Digital2_toolbox.c: 100:     while (!TXSTAbits.TRMT);
  4883                           
  4884  0B9F  1683               	bsf	3,5	;RP0=1, select bank1
  4885  0BA0  1303               	bcf	3,6	;RP1=0, select bank1
  4886  0BA1  1C98               	btfss	24,1	;volatile
  4887  0BA2  2BA4               	goto	u1421
  4888  0BA3  2BA5               	goto	u1420
  4889  0BA4                     u1421:
  4890  0BA4  2B9F               	goto	l201
  4891  0BA5                     u1420:
  4892  0BA5                     l204:
  4893  0BA5  0008               	return
  4894  0BA6                     __end_of_UART_Write_Char:
  4895                           
  4896                           	psect	text15
  4897  0C05                     __ptext15:	
  4898 ;; *************** function _UART_Write *****************
  4899 ;; Defined at:
  4900 ;;		line 90 in file "Digital2_toolbox.c"
  4901 ;; Parameters:    Size  Location     Type
  4902 ;;  word            1    wreg     PTR unsigned char 
  4903 ;;		 -> STR_11(5), STR_10(2), STR_9(13), STR_6(4), 
  4904 ;;		 -> STR_5(2), STR_4(13), 
  4905 ;; Auto vars:     Size  Location     Type
  4906 ;;  word            1    1[BANK0 ] PTR unsigned char 
  4907 ;;		 -> STR_11(5), STR_10(2), STR_9(13), STR_6(4), 
  4908 ;;		 -> STR_5(2), STR_4(13), 
  4909 ;; Return value:  Size  Location     Type
  4910 ;;                  1    wreg      void 
  4911 ;; Registers used:
  4912 ;;		wreg, fsr0l, fsr0h, status,2, status,0, pclath
  4913 ;; Tracked objects:
  4914 ;;		On entry : 0/0
  4915 ;;		On exit  : 0/0
  4916 ;;		Unchanged: 0/0
  4917 ;; Data sizes:     COMMON   BANK0   BANK1   BANK3   BANK2
  4918 ;;      Params:         0       0       0       0       0
  4919 ;;      Locals:         0       1       0       0       0
  4920 ;;      Temps:          0       1       0       0       0
  4921 ;;      Totals:         0       2       0       0       0
  4922 ;;Total ram usage:        2 bytes
  4923 ;; Hardware stack levels used: 1
  4924 ;; Hardware stack levels required when called: 2
  4925 ;; This function calls:
  4926 ;;		Nothing
  4927 ;; This function is called by:
  4928 ;;		_main
  4929 ;; This function uses a non-reentrant model
  4930 ;;
  4931                           
  4932                           
  4933                           ;psect for function _UART_Write
  4934  0C05                     _UART_Write:
  4935                           
  4936                           ;incstack = 0
  4937                           ; Regs used in _UART_Write: [wreg-fsr0h+status,2+status,0+pclath]
  4938                           ;UART_Write@word stored from wreg
  4939  0C05  1283               	bcf	3,5	;RP0=0, select bank0
  4940  0C06  1303               	bcf	3,6	;RP1=0, select bank0
  4941  0C07  00A1               	movwf	UART_Write@word
  4942  0C08                     l1658:
  4943                           
  4944                           ;Digital2_toolbox.c: 91:     while (*word != 0){
  4945  0C08  2C1D               	goto	l1664
  4946  0C09                     l1660:
  4947                           
  4948                           ;Digital2_toolbox.c: 92:         TXREG = (*word);
  4949  0C09  0821               	movf	UART_Write@word,w
  4950  0C0A  0084               	movwf	4
  4951  0C0B  120A  158A  2000  120A  158A  	fcall	stringdir
  4952  0C10  0099               	movwf	25	;volatile
  4953  0C11                     l194:	
  4954                           ;Digital2_toolbox.c: 93:         while(!TXSTAbits.TRMT);
  4955                           
  4956  0C11  1683               	bsf	3,5	;RP0=1, select bank1
  4957  0C12  1303               	bcf	3,6	;RP1=0, select bank1
  4958  0C13  1C98               	btfss	24,1	;volatile
  4959  0C14  2C16               	goto	u1401
  4960  0C15  2C17               	goto	u1400
  4961  0C16                     u1401:
  4962  0C16  2C11               	goto	l194
  4963  0C17                     u1400:
  4964  0C17                     l1662:
  4965                           
  4966                           ;Digital2_toolbox.c: 94:         word++;
  4967  0C17  3001               	movlw	1
  4968  0C18  1283               	bcf	3,5	;RP0=0, select bank0
  4969  0C19  1303               	bcf	3,6	;RP1=0, select bank0
  4970  0C1A  00A0               	movwf	??_UART_Write
  4971  0C1B  0820               	movf	??_UART_Write,w
  4972  0C1C  07A1               	addwf	UART_Write@word,f
  4973  0C1D                     l1664:
  4974                           
  4975                           ;Digital2_toolbox.c: 91:     while (*word != 0){
  4976  0C1D  0821               	movf	UART_Write@word,w
  4977  0C1E  0084               	movwf	4
  4978  0C1F  120A  158A  2000  120A  158A  	fcall	stringdir
  4979  0C24  3A00               	xorlw	0
  4980  0C25  1D03               	skipz
  4981  0C26  2C28               	goto	u1411
  4982  0C27  2C29               	goto	u1410
  4983  0C28                     u1411:
  4984  0C28  2C09               	goto	l1660
  4985  0C29                     u1410:
  4986  0C29                     l198:
  4987  0C29  0008               	return
  4988  0C2A                     __end_of_UART_Write:
  4989                           
  4990                           	psect	text16
  4991  0C51                     __ptext16:	
  4992 ;; *************** function _Lcd_Write_String *****************
  4993 ;; Defined at:
  4994 ;;		line 65 in file "Digital2_toolbox.c"
  4995 ;; Parameters:    Size  Location     Type
  4996 ;;  a               1    wreg     PTR unsigned char 
  4997 ;;		 -> STR_13(2), STR_12(2), STR_8(3), STR_7(2), 
  4998 ;;		 -> STR_3(3), STR_2(2), STR_1(18), 
  4999 ;; Auto vars:     Size  Location     Type
  5000 ;;  a               1    5[BANK0 ] PTR unsigned char 
  5001 ;;		 -> STR_13(2), STR_12(2), STR_8(3), STR_7(2), 
  5002 ;;		 -> STR_3(3), STR_2(2), STR_1(18), 
  5003 ;;  i               2    3[BANK0 ] int 
  5004 ;; Return value:  Size  Location     Type
  5005 ;;                  1    wreg      void 
  5006 ;; Registers used:
  5007 ;;		wreg, fsr0l, fsr0h, status,2, status,0, pclath, cstack
  5008 ;; Tracked objects:
  5009 ;;		On entry : 0/0
  5010 ;;		On exit  : 0/0
  5011 ;;		Unchanged: 0/0
  5012 ;; Data sizes:     COMMON   BANK0   BANK1   BANK3   BANK2
  5013 ;;      Params:         0       0       0       0       0
  5014 ;;      Locals:         0       3       0       0       0
  5015 ;;      Temps:          0       0       0       0       0
  5016 ;;      Totals:         0       3       0       0       0
  5017 ;;Total ram usage:        3 bytes
  5018 ;; Hardware stack levels used: 1
  5019 ;; Hardware stack levels required when called: 3
  5020 ;; This function calls:
  5021 ;;		_Lcd_Write_Char
  5022 ;; This function is called by:
  5023 ;;		_main
  5024 ;; This function uses a non-reentrant model
  5025 ;;
  5026                           
  5027                           
  5028                           ;psect for function _Lcd_Write_String
  5029  0C51                     _Lcd_Write_String:
  5030                           
  5031                           ;incstack = 0
  5032                           ; Regs used in _Lcd_Write_String: [wreg-fsr0h+status,2+status,0+pclath+cstack]
  5033                           ;Lcd_Write_String@a stored from wreg
  5034  0C51  1283               	bcf	3,5	;RP0=0, select bank0
  5035  0C52  1303               	bcf	3,6	;RP1=0, select bank0
  5036  0C53  00A5               	movwf	Lcd_Write_String@a
  5037  0C54                     l1648:
  5038                           
  5039                           ;Digital2_toolbox.c: 66:     int i;;Digital2_toolbox.c: 67:     for (i = 0; a[i] != '\0'
      +                          ; i++){
  5040  0C54  01A3               	clrf	Lcd_Write_String@i
  5041  0C55  01A4               	clrf	Lcd_Write_String@i+1
  5042  0C56  2C6C               	goto	l1654
  5043  0C57                     l1650:
  5044                           
  5045                           ;Digital2_toolbox.c: 68:         Lcd_Write_Char(a[i]);
  5046  0C57  0823               	movf	Lcd_Write_String@i,w
  5047  0C58  0725               	addwf	Lcd_Write_String@a,w
  5048  0C59  0084               	movwf	4
  5049  0C5A  120A  158A  2000  120A  158A  	fcall	stringdir
  5050  0C5F  120A  158A  23E9  120A  158A  	fcall	_Lcd_Write_Char
  5051  0C64                     l1652:
  5052                           
  5053                           ;Digital2_toolbox.c: 69:     }
  5054  0C64  3001               	movlw	1
  5055  0C65  1283               	bcf	3,5	;RP0=0, select bank0
  5056  0C66  1303               	bcf	3,6	;RP1=0, select bank0
  5057  0C67  07A3               	addwf	Lcd_Write_String@i,f
  5058  0C68  1803               	skipnc
  5059  0C69  0AA4               	incf	Lcd_Write_String@i+1,f
  5060  0C6A  3000               	movlw	0
  5061  0C6B  07A4               	addwf	Lcd_Write_String@i+1,f
  5062  0C6C                     l1654:
  5063  0C6C  0823               	movf	Lcd_Write_String@i,w
  5064  0C6D  0725               	addwf	Lcd_Write_String@a,w
  5065  0C6E  0084               	movwf	4
  5066  0C6F  120A  158A  2000  120A  158A  	fcall	stringdir
  5067  0C74  3A00               	xorlw	0
  5068  0C75  1D03               	skipz
  5069  0C76  2C78               	goto	u1391
  5070  0C77  2C79               	goto	u1390
  5071  0C78                     u1391:
  5072  0C78  2C57               	goto	l1650
  5073  0C79                     u1390:
  5074  0C79                     l186:
  5075  0C79  0008               	return
  5076  0C7A                     __end_of_Lcd_Write_String:
  5077                           
  5078                           	psect	text17
  5079  0BE9                     __ptext17:	
  5080 ;; *************** function _Lcd_Write_Char *****************
  5081 ;; Defined at:
  5082 ;;		line 56 in file "Digital2_toolbox.c"
  5083 ;; Parameters:    Size  Location     Type
  5084 ;;  a               1    wreg     unsigned char 
  5085 ;; Auto vars:     Size  Location     Type
  5086 ;;  a               1    2[BANK0 ] unsigned char 
  5087 ;; Return value:  Size  Location     Type
  5088 ;;                  1    wreg      void 
  5089 ;; Registers used:
  5090 ;;		wreg
  5091 ;; Tracked objects:
  5092 ;;		On entry : 0/0
  5093 ;;		On exit  : 0/0
  5094 ;;		Unchanged: 0/0
  5095 ;; Data sizes:     COMMON   BANK0   BANK1   BANK3   BANK2
  5096 ;;      Params:         0       0       0       0       0
  5097 ;;      Locals:         0       1       0       0       0
  5098 ;;      Temps:          0       2       0       0       0
  5099 ;;      Totals:         0       3       0       0       0
  5100 ;;Total ram usage:        3 bytes
  5101 ;; Hardware stack levels used: 1
  5102 ;; Hardware stack levels required when called: 2
  5103 ;; This function calls:
  5104 ;;		Nothing
  5105 ;; This function is called by:
  5106 ;;		_main
  5107 ;;		_Lcd_Write_String
  5108 ;; This function uses a non-reentrant model
  5109 ;;
  5110                           
  5111                           
  5112                           ;psect for function _Lcd_Write_Char
  5113  0BE9                     _Lcd_Write_Char:
  5114                           
  5115                           ;incstack = 0
  5116                           ; Regs used in _Lcd_Write_Char: [wreg]
  5117                           ;Lcd_Write_Char@a stored from wreg
  5118  0BE9  1283               	bcf	3,5	;RP0=0, select bank0
  5119  0BEA  1303               	bcf	3,6	;RP1=0, select bank0
  5120  0BEB  00A2               	movwf	Lcd_Write_Char@a
  5121  0BEC                     l1488:
  5122                           
  5123                           ;Digital2_toolbox.c: 57:     PORTD = a;
  5124  0BEC  0822               	movf	Lcd_Write_Char@a,w
  5125  0BED  0088               	movwf	8	;volatile
  5126  0BEE                     l1490:
  5127                           
  5128                           ;Digital2_toolbox.c: 58:     RE0 = 1;
  5129  0BEE  1409               	bsf	9,0	;volatile
  5130  0BEF                     l1492:
  5131                           
  5132                           ;Digital2_toolbox.c: 59:     RE1 = 1;
  5133  0BEF  1489               	bsf	9,1	;volatile
  5134                           
  5135                           ;Digital2_toolbox.c: 60:     _delay((unsigned long)((100)*(4000000/4000000.0)));
  5136  0BF0  3020               	movlw	32
  5137  0BF1  1283               	bcf	3,5	;RP0=0, select bank0
  5138  0BF2  1303               	bcf	3,6	;RP1=0, select bank0
  5139  0BF3  00A0               	movwf	??_Lcd_Write_Char
  5140  0BF4                     u2517:
  5141  0BF4  0BA0               	decfsz	??_Lcd_Write_Char,f
  5142  0BF5  2BF4               	goto	u2517
  5143  0BF6  0000               	nop
  5144  0BF7                     l1494:
  5145                           
  5146                           ;Digital2_toolbox.c: 61:     RE1 = 0;
  5147  0BF7  1283               	bcf	3,5	;RP0=0, select bank0
  5148  0BF8  1303               	bcf	3,6	;RP1=0, select bank0
  5149  0BF9  1089               	bcf	9,1	;volatile
  5150                           
  5151                           ;Digital2_toolbox.c: 62:     _delay((unsigned long)((10)*(4000000/4000.0)));
  5152  0BFA  300D               	movlw	13
  5153  0BFB  1283               	bcf	3,5	;RP0=0, select bank0
  5154  0BFC  1303               	bcf	3,6	;RP1=0, select bank0
  5155  0BFD  00A1               	movwf	??_Lcd_Write_Char+1
  5156  0BFE  30FB               	movlw	251
  5157  0BFF  00A0               	movwf	??_Lcd_Write_Char
  5158  0C00                     u2527:
  5159  0C00  0BA0               	decfsz	??_Lcd_Write_Char,f
  5160  0C01  2C00               	goto	u2527
  5161  0C02  0BA1               	decfsz	??_Lcd_Write_Char+1,f
  5162  0C03  2C00               	goto	u2527
  5163  0C04                     l180:
  5164  0C04  0008               	return
  5165  0C05                     __end_of_Lcd_Write_Char:
  5166                           
  5167                           	psect	text18
  5168  0D05                     __ptext18:	
  5169 ;; *************** function _isr *****************
  5170 ;; Defined at:
  5171 ;;		line 207 in file "main.c"
  5172 ;; Parameters:    Size  Location     Type
  5173 ;;		None
  5174 ;; Auto vars:     Size  Location     Type
  5175 ;;		None
  5176 ;; Return value:  Size  Location     Type
  5177 ;;                  1    wreg      void 
  5178 ;; Registers used:
  5179 ;;		wreg, status,2, status,0, pclath, cstack
  5180 ;; Tracked objects:
  5181 ;;		On entry : 0/0
  5182 ;;		On exit  : 0/0
  5183 ;;		Unchanged: 0/0
  5184 ;; Data sizes:     COMMON   BANK0   BANK1   BANK3   BANK2
  5185 ;;      Params:         0       0       0       0       0
  5186 ;;      Locals:         0       0       0       0       0
  5187 ;;      Temps:          3       0       0       0       0
  5188 ;;      Totals:         3       0       0       0       0
  5189 ;;Total ram usage:        3 bytes
  5190 ;; Hardware stack levels used: 1
  5191 ;; Hardware stack levels required when called: 1
  5192 ;; This function calls:
  5193 ;;		_readAnalog
  5194 ;; This function is called by:
  5195 ;;		Interrupt level 1
  5196 ;; This function uses a non-reentrant model
  5197 ;;
  5198                           
  5199                           
  5200                           ;psect for function _isr
  5201  0D05                     _isr:
  5202  0D05                     i1l2142:
  5203                           
  5204                           ;main.c: 208:     if(ADIF){
  5205  0D05  1283               	bcf	3,5	;RP0=0, select bank0
  5206  0D06  1303               	bcf	3,6	;RP1=0, select bank0
  5207  0D07  1F0C               	btfss	12,6	;volatile
  5208  0D08  2D0A               	goto	u242_21
  5209  0D09  2D0B               	goto	u242_20
  5210  0D0A                     u242_21:
  5211  0D0A  2D3F               	goto	i1l138
  5212  0D0B                     u242_20:
  5213  0D0B                     i1l2144:
  5214                           
  5215                           ;main.c: 209:         if(ADCON0bits.CHS==0b0000){
  5216  0D0B  0C1F               	rrf	31,w	;volatile
  5217  0D0C  00FB               	movwf	??_isr
  5218  0D0D  0C7B               	rrf	??_isr,w
  5219  0D0E  390F               	andlw	15
  5220  0D0F  3A00               	xorlw	0
  5221  0D10  1D03               	skipz
  5222  0D11  2D13               	goto	u243_21
  5223  0D12  2D14               	goto	u243_20
  5224  0D13                     u243_21:
  5225  0D13  2D26               	goto	i1l2150
  5226  0D14                     u243_20:
  5227  0D14                     i1l2146:
  5228                           
  5229                           ;main.c: 210:             read_an1 = readAnalog();
  5230  0D14  120A  158A  24A3  120A  158A  	fcall	_readAnalog
  5231  0D19  0871               	movf	?_readAnalog+1,w
  5232  0D1A  1683               	bsf	3,5	;RP0=1, select bank1
  5233  0D1B  1303               	bcf	3,6	;RP1=0, select bank1
  5234  0D1C  00AD               	movwf	(_read_an1+1)^(0+128)
  5235  0D1D  0870               	movf	?_readAnalog,w
  5236  0D1E  00AC               	movwf	_read_an1^(0+128)
  5237  0D1F                     i1l2148:
  5238                           
  5239                           ;main.c: 211:             ADCON0bits.CHS = 0b0001;
  5240  0D1F  1283               	bcf	3,5	;RP0=0, select bank0
  5241  0D20  1303               	bcf	3,6	;RP1=0, select bank0
  5242  0D21  081F               	movf	31,w	;volatile
  5243  0D22  39C3               	andlw	-61
  5244  0D23  3804               	iorlw	4
  5245  0D24  009F               	movwf	31	;volatile
  5246                           
  5247                           ;main.c: 212:         }
  5248  0D25  2D3E               	goto	i1l2156
  5249  0D26                     i1l2150:
  5250  0D26  0C1F               	rrf	31,w	;volatile
  5251  0D27  00FB               	movwf	??_isr
  5252  0D28  0C7B               	rrf	??_isr,w
  5253  0D29  390F               	andlw	15
  5254  0D2A  3A01               	xorlw	1
  5255  0D2B  1D03               	skipz
  5256  0D2C  2D2E               	goto	u244_21
  5257  0D2D  2D2F               	goto	u244_20
  5258  0D2E                     u244_21:
  5259  0D2E  2D3E               	goto	i1l2156
  5260  0D2F                     u244_20:
  5261  0D2F                     i1l2152:
  5262                           
  5263                           ;main.c: 214:             read_an2 = readAnalog();
  5264  0D2F  120A  158A  24A3  120A  158A  	fcall	_readAnalog
  5265  0D34  0871               	movf	?_readAnalog+1,w
  5266  0D35  1683               	bsf	3,5	;RP0=1, select bank1
  5267  0D36  1303               	bcf	3,6	;RP1=0, select bank1
  5268  0D37  00AB               	movwf	(_read_an2+1)^(0+128)
  5269  0D38  0870               	movf	?_readAnalog,w
  5270  0D39  00AA               	movwf	_read_an2^(0+128)
  5271  0D3A                     i1l2154:
  5272                           
  5273                           ;main.c: 215:             ADCON0bits.CHS = 0b0000;
  5274  0D3A  30C3               	movlw	-61
  5275  0D3B  1283               	bcf	3,5	;RP0=0, select bank0
  5276  0D3C  1303               	bcf	3,6	;RP1=0, select bank0
  5277  0D3D  059F               	andwf	31,f	;volatile
  5278  0D3E                     i1l2156:
  5279                           
  5280                           ;main.c: 217:         ADIF = 0;
  5281  0D3E  130C               	bcf	12,6	;volatile
  5282  0D3F                     i1l138:
  5283  0D3F  087D               	movf	??_isr+2,w
  5284  0D40  008A               	movwf	10
  5285  0D41  0E7C               	swapf	??_isr+1,w
  5286  0D42  0083               	movwf	3
  5287  0D43  0EFE               	swapf	btemp,f
  5288  0D44  0E7E               	swapf	btemp,w
  5289  0D45  0009               	retfie
  5290  0D46                     __end_of_isr:
  5291                           
  5292                           	psect	intentry
  5293  0004                     __pintentry:	
  5294                           ;incstack = 0
  5295                           ; Regs used in _isr: [wreg+status,2+status,0+pclath+cstack]
  5296                           
  5297  0004                     interrupt_function:
  5298  007E                     saved_w	set	btemp
  5299  0004  00FE               	movwf	btemp
  5300  0005  0E03               	swapf	3,w
  5301  0006  00FC               	movwf	??_isr+1
  5302  0007  080A               	movf	10,w
  5303  0008  00FD               	movwf	??_isr+2
  5304  0009  120A  158A  2D05   	ljmp	_isr
  5305                           
  5306                           	psect	text19
  5307  0CA3                     __ptext19:	
  5308 ;; *************** function _readAnalog *****************
  5309 ;; Defined at:
  5310 ;;		line 6 in file "Digital2_toolbox.c"
  5311 ;; Parameters:    Size  Location     Type
  5312 ;;		None
  5313 ;; Auto vars:     Size  Location     Type
  5314 ;;  result          2    9[COMMON] unsigned int 
  5315 ;;  b               2    7[COMMON] unsigned int 
  5316 ;;  a               2    5[COMMON] unsigned int 
  5317 ;; Return value:  Size  Location     Type
  5318 ;;                  2    0[COMMON] unsigned int 
  5319 ;; Registers used:
  5320 ;;		wreg, status,2, status,0
  5321 ;; Tracked objects:
  5322 ;;		On entry : 0/0
  5323 ;;		On exit  : 0/0
  5324 ;;		Unchanged: 0/0
  5325 ;; Data sizes:     COMMON   BANK0   BANK1   BANK3   BANK2
  5326 ;;      Params:         2       0       0       0       0
  5327 ;;      Locals:         6       0       0       0       0
  5328 ;;      Temps:          3       0       0       0       0
  5329 ;;      Totals:        11       0       0       0       0
  5330 ;;Total ram usage:       11 bytes
  5331 ;; Hardware stack levels used: 1
  5332 ;; This function calls:
  5333 ;;		Nothing
  5334 ;; This function is called by:
  5335 ;;		_isr
  5336 ;; This function uses a non-reentrant model
  5337 ;;
  5338                           
  5339                           
  5340                           ;psect for function _readAnalog
  5341  0CA3                     _readAnalog:
  5342  0CA3                     i1l1668:	
  5343                           ;incstack = 0
  5344                           ; Regs used in _readAnalog: [wreg+status,2+status,0]
  5345                           
  5346  0CA3                     i1l1670:
  5347                           
  5348                           ;Digital2_toolbox.c: 8:     uint16_t a;;Digital2_toolbox.c: 9:     uint16_t b;;Digital2_
      +                          toolbox.c: 10:     a = ADRESL>>6;
  5349  0CA3  1683               	bsf	3,5	;RP0=1, select bank1
  5350  0CA4  1303               	bcf	3,6	;RP1=0, select bank1
  5351  0CA5  081E               	movf	30,w	;volatile
  5352  0CA6  00F2               	movwf	??_readAnalog
  5353  0CA7  3006               	movlw	6
  5354  0CA8                     u143_25:
  5355  0CA8  1003               	clrc
  5356  0CA9  0CF2               	rrf	??_readAnalog,f
  5357  0CAA  3EFF               	addlw	-1
  5358  0CAB  1D03               	skipz
  5359  0CAC  2CA8               	goto	u143_25
  5360  0CAD  0872               	movf	??_readAnalog,w
  5361  0CAE  00F3               	movwf	??_readAnalog+1
  5362  0CAF  01F4               	clrf	??_readAnalog+2
  5363  0CB0  0873               	movf	??_readAnalog+1,w
  5364  0CB1  00F5               	movwf	readAnalog@a
  5365  0CB2  0874               	movf	??_readAnalog+2,w
  5366  0CB3  00F6               	movwf	readAnalog@a+1
  5367  0CB4                     i1l1672:
  5368                           
  5369                           ;Digital2_toolbox.c: 11:     b = ADRESH<<2;
  5370  0CB4  1283               	bcf	3,5	;RP0=0, select bank0
  5371  0CB5  1303               	bcf	3,6	;RP1=0, select bank0
  5372  0CB6  081E               	movf	30,w	;volatile
  5373  0CB7  00F2               	movwf	??_readAnalog
  5374  0CB8  01F3               	clrf	??_readAnalog+1
  5375  0CB9  1003               	clrc
  5376  0CBA  0DF2               	rlf	??_readAnalog,f
  5377  0CBB  0DF3               	rlf	??_readAnalog+1,f
  5378  0CBC  1003               	clrc
  5379  0CBD  0DF2               	rlf	??_readAnalog,f
  5380  0CBE  0DF3               	rlf	??_readAnalog+1,f
  5381  0CBF  0872               	movf	??_readAnalog,w
  5382  0CC0  00F7               	movwf	readAnalog@b
  5383  0CC1  0873               	movf	??_readAnalog+1,w
  5384  0CC2  00F8               	movwf	readAnalog@b+1
  5385  0CC3                     i1l1674:
  5386                           
  5387                           ;Digital2_toolbox.c: 12:     result = b|a;
  5388  0CC3  0875               	movf	readAnalog@a,w
  5389  0CC4  0477               	iorwf	readAnalog@b,w
  5390  0CC5  00F9               	movwf	readAnalog@result
  5391  0CC6  0876               	movf	readAnalog@a+1,w
  5392  0CC7  0478               	iorwf	readAnalog@b+1,w
  5393  0CC8  00FA               	movwf	readAnalog@result+1
  5394  0CC9                     i1l1676:
  5395                           
  5396                           ;Digital2_toolbox.c: 13:     return result;
  5397  0CC9  087A               	movf	readAnalog@result+1,w
  5398  0CCA  00F1               	movwf	?_readAnalog+1
  5399  0CCB  0879               	movf	readAnalog@result,w
  5400  0CCC  00F0               	movwf	?_readAnalog
  5401  0CCD                     i1l165:
  5402  0CCD  0008               	return
  5403  0CCE                     __end_of_readAnalog:
  5404  007E                     btemp	set	126	;btemp
  5405  007E                     wtemp0	set	126
  5406                           
  5407                           	psect	config
  5408                           
  5409                           ;Config register CONFIG1 @ 0x2007
  5410                           ;	Oscillator Selection bits
  5411                           ;	FOSC = INTRC_NOCLKOUT, INTOSCIO oscillator: I/O function on RA6/OSC2/CLKOUT pin, I/O f
      +                          unction on RA7/OSC1/CLKIN
  5412                           ;	Watchdog Timer Enable bit
  5413                           ;	WDTE = OFF, WDT disabled and can be enabled by SWDTEN bit of the WDTCON register
  5414                           ;	Power-up Timer Enable bit
  5415                           ;	PWRTE = OFF, PWRT disabled
  5416                           ;	RE3/MCLR pin function select bit
  5417                           ;	MCLRE = ON, RE3/MCLR pin function is MCLR
  5418                           ;	Code Protection bit
  5419                           ;	CP = OFF, Program memory code protection is disabled
  5420                           ;	Data Code Protection bit
  5421                           ;	CPD = OFF, Data memory code protection is disabled
  5422                           ;	Brown Out Reset Selection bits
  5423                           ;	BOREN = ON, BOR enabled
  5424                           ;	Internal External Switchover bit
  5425                           ;	IESO = ON, Internal/External Switchover mode is enabled
  5426                           ;	Fail-Safe Clock Monitor Enabled bit
  5427                           ;	FCMEN = ON, Fail-Safe Clock Monitor is enabled
  5428                           ;	Low Voltage Programming Enable bit
  5429                           ;	LVP = ON, RB3/PGM pin has PGM function, low voltage programming enabled
  5430                           ;	In-Circuit Debugger Mode bit
  5431                           ;	DEBUG = 0x1, unprogrammed default
  5432  2007                     	org	8199
  5433  2007  3FF4               	dw	16372
  5434                           
  5435                           ;Config register CONFIG2 @ 0x2008
  5436                           ;	Brown-out Reset Selection bit
  5437                           ;	BOR4V = BOR40V, Brown-out Reset set to 4.0V
  5438                           ;	Flash Program Memory Self Write Enable bits
  5439                           ;	WRT = OFF, Write protection off
  5440  2008                     	org	8200
  5441  2008  3FFF               	dw	16383

Data Sizes:
    Strings     58
    Constant    0
    Data        0
    BSS         26
    Persistent  0
    Stack       0

Auto Spaces:
    Space          Size  Autos    Used
    COMMON           14     14      14
    BANK0            80     77      80
    BANK1            80      6      29
    BANK3            96      0       0
    BANK2            96      0       0

Pointer List with Targets:

    UART_Write@word	PTR unsigned char  size(1) Largest target is 13
		 -> STR_11(CODE[5]), STR_10(CODE[2]), STR_9(CODE[13]), STR_6(CODE[4]), 
		 -> STR_5(CODE[2]), STR_4(CODE[13]), 

    Lcd_Write_String@a	PTR unsigned char  size(1) Largest target is 18
		 -> STR_13(CODE[2]), STR_12(CODE[2]), STR_8(CODE[3]), STR_7(CODE[2]), 
		 -> STR_3(CODE[3]), STR_2(CODE[2]), STR_1(CODE[18]), 

    divide@unit	PTR unsigned char  size(1) Largest target is 1
		 -> uc(BANK1[1]), u2(BANK1[1]), u1(BANK1[1]), 

    divide@dec	PTR unsigned char  size(1) Largest target is 1
		 -> dc(BANK1[1]), d2(BANK1[1]), d1(BANK0[1]), 

    divide@cent	PTR unsigned char  size(1) Largest target is 1
		 -> cc(BANK1[1]), c2(BANK1[1]), c1(BANK0[1]), 

    divide@mil	PTR unsigned char  size(1) Largest target is 1
		 -> mc(BANK1[1]), m2(BANK1[1]), m1(BANK0[1]), 


Critical Paths under _main in COMMON

    None.

Critical Paths under _isr in COMMON

    _isr->_readAnalog

Critical Paths under _main in BANK0

    _main->___fltol
    _setup->_Lcd_Init
    _Lcd_Init->_Lcd_Cmd
    _divide->___lwdiv
    ___lwdiv->___wmul
    ___fltol->___fldiv
    ___flmul->___xxtofl
    ___fldiv->___flmul
    _Lcd_Write_String->_Lcd_Write_Char

Critical Paths under _isr in BANK0

    None.

Critical Paths under _main in BANK1

    None.

Critical Paths under _isr in BANK1

    None.

Critical Paths under _main in BANK3

    None.

Critical Paths under _isr in BANK3

    None.

Critical Paths under _main in BANK2

    None.

Critical Paths under _isr in BANK2

    None.

Call Graph Tables:

 ---------------------------------------------------------------------------------
 (Depth) Function   	        Calls       Base Space   Used Autos Params    Refs
 ---------------------------------------------------------------------------------
 (0) _main                                                 6     6      0    8457
                                              0 BANK1      6     6      0
                            _Lcd_Cmd
                     _Lcd_Write_Char
                   _Lcd_Write_String
                         _UART_Write
                    _UART_Write_Char
                            ___fldiv
                            ___flmul
                            ___fltol
                           ___xxtofl
                             _divide
                              _setup
 ---------------------------------------------------------------------------------
 (1) _setup                                                0     0      0      22
                           _Lcd_Init
                          _UART_Init
 ---------------------------------------------------------------------------------
 (2) _UART_Init                                            0     0      0       0
 ---------------------------------------------------------------------------------
 (2) _Lcd_Init                                             2     2      0      22
                                              3 BANK0      2     2      0
                            _Lcd_Cmd
 ---------------------------------------------------------------------------------
 (3) _Lcd_Cmd                                              3     3      0      22
                                              0 BANK0      3     3      0
 ---------------------------------------------------------------------------------
 (1) _divide                                              15     9      6    2934
                                             14 BANK0     15     9      6
                             ___bmul
                            ___lwdiv
                             ___wmul
 ---------------------------------------------------------------------------------
 (2) ___wmul                                               6     2      4     548
                                              0 BANK0      6     2      4
 ---------------------------------------------------------------------------------
 (2) ___lwdiv                                              8     4      4     618
                                              6 BANK0      8     4      4
                             ___wmul (ARG)
 ---------------------------------------------------------------------------------
 (2) ___bmul                                               4     3      1     320
                                              0 BANK0      4     3      1
 ---------------------------------------------------------------------------------
 (1) ___xxtofl                                            14    10      4     474
                                              0 BANK0     14    10      4
 ---------------------------------------------------------------------------------
 (1) ___fltol                                             11     7      4     381
                                             66 BANK0     11     7      4
                            ___fldiv (ARG)
                            ___flmul (ARG)
                           ___xxtofl (ARG)
 ---------------------------------------------------------------------------------
 (1) ___flmul                                             26    18      8    2569
                                             14 BANK0     26    18      8
                          __Umul8_16
                           ___xxtofl (ARG)
 ---------------------------------------------------------------------------------
 (2) __Umul8_16                                            9     7      2     799
                                              0 BANK0      9     7      2
 ---------------------------------------------------------------------------------
 (1) ___fldiv                                             26    18      8    1425
                                             40 BANK0     26    18      8
                            ___flmul (ARG)
                           ___xxtofl (ARG)
 ---------------------------------------------------------------------------------
 (1) _UART_Write_Char                                      1     1      0      22
                                              0 BANK0      1     1      0
 ---------------------------------------------------------------------------------
 (1) _UART_Write                                           2     2      0     243
                                              0 BANK0      2     2      0
 ---------------------------------------------------------------------------------
 (1) _Lcd_Write_String                                     3     3      0     343
                                              3 BANK0      3     3      0
                     _Lcd_Write_Char
 ---------------------------------------------------------------------------------
 (2) _Lcd_Write_Char                                       3     3      0      22
                                              0 BANK0      3     3      0
 ---------------------------------------------------------------------------------
 Estimated maximum stack depth 3
 ---------------------------------------------------------------------------------
 (Depth) Function   	        Calls       Base Space   Used Autos Params    Refs
 ---------------------------------------------------------------------------------
 (4) _isr                                                  3     3      0      70
                                             11 COMMON     3     3      0
                         _readAnalog
 ---------------------------------------------------------------------------------
 (5) _readAnalog                                          11     9      2      70
                                              0 COMMON    11     9      2
 ---------------------------------------------------------------------------------
 Estimated maximum stack depth 5
 ---------------------------------------------------------------------------------

 Call Graph Graphs:

 _main (ROOT)
   _Lcd_Cmd
   _Lcd_Write_Char
   _Lcd_Write_String
     _Lcd_Write_Char
   _UART_Write
   _UART_Write_Char
   ___fldiv
     ___flmul (ARG)
       __Umul8_16
       ___xxtofl (ARG)
     ___xxtofl (ARG)
   ___flmul
   ___fltol
     ___fldiv (ARG)
     ___flmul (ARG)
     ___xxtofl (ARG)
   ___xxtofl
   _divide
     ___bmul
     ___lwdiv
       ___wmul (ARG)
     ___wmul
   _setup
     _Lcd_Init
       _Lcd_Cmd
     _UART_Init

 _isr (ROOT)
   _readAnalog

 Address spaces:
Name               Size   Autos  Total    Cost      Usage
BITCOMMON            E      0       0       0        0.0%
EEDATA             100      0       0       0        0.0%
NULL                 0      0       0       0        0.0%
CODE                 0      0       0       0        0.0%
COMMON               E      E       E       1      100.0%
BITSFR0              0      0       0       1        0.0%
SFR0                 0      0       0       1        0.0%
BITSFR1              0      0       0       2        0.0%
SFR1                 0      0       0       2        0.0%
STACK                0      0       0       2        0.0%
ABS                  0      0      7B       3        0.0%
BITBANK0            50      0       0       4        0.0%
BITSFR3              0      0       0       4        0.0%
SFR3                 0      0       0       4        0.0%
BANK0               50     4D      50       5      100.0%
BITSFR2              0      0       0       5        0.0%
SFR2                 0      0       0       5        0.0%
BITBANK1            50      0       0       6        0.0%
BANK1               50      6      1D       7       36.2%
BITBANK3            60      0       0       8        0.0%
BANK3               60      0       0       9        0.0%
BITBANK2            60      0       0      10        0.0%
BANK2               60      0       0      11        0.0%
DATA                 0      0      7B      12        0.0%


Microchip Technology PIC Macro Assembler V2.32 build 20210201212658 
Symbol Table                                                                                   Sun Jul 25 18:25:08 2021

             ___fldiv@aexp 0061               ___fldiv@bexp 0060                          pc 0002  
             ___fldiv@sign 0059             ___bmul@product 0022                         _GO 00F9  
                       _c1 006E                         _c2 00B4                         _d1 006D  
                       _d2 00B3                         _m1 006F                         _m2 00B5  
                       _u1 00B6                         _u2 00B2                         _v1 00A6  
                       _v2 00A2                         _cc 00B0                         _dc 00AF  
                       _mc 00B1                         _uc 00AE                         fsr 0004  
      ___wmul@multiplicand 0022                divide@value 002E        __Umul8_16@word_mpld 0026  
                      l111 0461                        l120 061A                        l201 0B9F  
                      l204 0BA5                        l126 0D04                        l129 06F3  
                      l171 0BBB                        l180 0C04                        l316 0BE8  
                      l177 0DA6                        l186 0C79                        l194 0C11  
                      l290 0C38                        l700 0CA2                        l292 0C50  
                      l189 0BD1                        l198 0C29                        l641 0FFF  
                      l562 07F5                        l483 0E0D                        l723 0718  
                      l476 0E22                        l661 0FE3                        l725 07AF  
                      l486 0E22                        l663 0FF3                        l655 0F71  
                      l639 0E7F                        l736 0779                        l737 0785  
                      l729 075D                        l691 0375                        l685 02ED  
                      l679 0381                        l698 0C90                        _GIE 005F  
                      _RE0 0048                        _RE1 0049                        _isr 0D05  
                      fsr0 0004                        indf 0000               ___flmul@aexp 0040  
             ___flmul@bexp 0041               ___flmul@sign 003B               ___flmul@temp 0046  
             ___flmul@prod 0042               ___fltol@exp1 006C                       l2000 06FC  
                     l2010 0729                       l2002 0700                       l2020 0754  
                     l2012 072E                       l2004 0710                       l2100 0556  
                     l2030 0787                       l2022 0764                       l2014 073B  
                     l2006 0720                       l2110 057A                       l2102 055C  
                     l2032 079D                       l2024 076F                       l2016 0742  
                     l2120 05A4                       l2112 0583                       l2104 0565  
                     l2034 07A2                       l2026 0773                       l2018 0746  
                     l2130 05F0                       l2114 0589                       l2106 056E  
                     l2122 05AA                       l2050 0397                       l2042 0382  
                     l2036 07A6                       l2028 077D                       l1500 0D54  
                     l2140 0613                       l2132 05F7                       l2124 05B2  
                     l2116 0592                       l2108 0574                       l2060 0468  
                     l2052 03F4                       l2044 0387                       l2038 07A7  
                     l1510 0D78                       l1502 0D5A                       l2134 05FE  
                     l2126 05B8                       l2118 059B                       l2070 04B9  
                     l2062 046C                       l2054 044F                       l2046 038D  
                     l1520 0D96                       l1512 0D7E                       l1504 0D65  
                     l1600 0CCE                       l2136 0605                       l2128 05BE  
                     l2080 0508                       l2072 04EA                       l2064 0478  
                     l2056 0455                       l2048 0390                       l1522 0D9C  
                     l1514 0D84                       l1506 0D6B                       l1530 0BCE  
                     l1610 0CDB                       l1602 0CD2                       l2138 060C  
                     l2090 052C                       l2082 0511                       l2074 04F0  
                     l2066 0482                       l2058 045B                       l1540 0C46  
                     l1532 0C2A                       l1516 0D8A                       l1508 0D72  
                     l1524 0BBC                       l1620 0CE5                       l1612 0CDC  
                     l1604 0CD3                       l2092 0535                       l2084 0517  
                     l2076 04F9                       l2068 048A                       l1710 0E02  
                     l1702 0DE9                       l1550 0BDA                       l1542 0C4C  
                     l1534 0C2E                       l1518 0D90                       l1526 0BC9  
                     l1630 0CF3                       l1622 0CE7                       l1614 0CDD  
                     l1606 0CD8                       l2094 053E                       l2086 051D  
                     l2078 04FF                       l1800 0F2A                       l1720 0E30  
                     l1712 0E12                       l1704 0DFB                       l1552 0BDE  
                     l1560 07B0                       l1536 0C32                       l1480 0BA9  
                     l1528 0BCC                       l1640 0CFA                       l1632 0CF6  
                     l1624 0CE8                       l1616 0CDE                       l1608 0CDA  
                     l2096 0547                       l2088 0526                       l1490 0BEE  
                     l1650 0C57                       l1810 0F42                       l1802 0F32  
                     l1730 0E47                       l1722 0E34                       l1714 0E17  
                     l1554 0BE0                       l1546 0BD5                       l1570 07C8  
                     l1562 07B4                       l1538 0C3F                       l1482 0BAA  
                     l1642 0CFE                       l1634 0CF7                       l1626 0CE9  
                     l1618 0CDF                       l2098 054D                       l1492 0BEF  
                     l1652 0C64                       l1660 0C09                       l1820 0F5A  
                     l1812 0F4B                       l1804 0F34                       l1740 0E5D  
                     l1732 0E48                       l1724 0E35                       l1716 0E23  
                     l1556 0BE7                       l1548 0BD6                       l1580 07EB  
                     l1572 07CC                       l1564 07BA                       l1484 0BAC  
                     l1644 0D00                       l1636 0CF8                       l1628 0CEE  
                     l1494 0BF7                       l1654 0C6C                       l1662 0C17  
                     l1830 0F89                       l1822 0F6E                       l1806 0F3D  
                     l1814 0F51                       l1750 0E74                       l1742 0E61  
                     l1726 0E3A                       l1734 0E4A                       l1718 0E2A  
                     l1590 0C86                       l1910 00E4                       l1902 008E  
                     l1574 07DD                       l1566 07BD                       l1582 07F1  
                     l1486 0BB8                       l1646 0D02                       l1638 0CF9  
                     l1488 0BEC                       l1648 0C54                       l1664 0C1D  
                     l1840 0FC7                       l1832 0F8D                       l1816 0F55  
                     l1808 0F41                       l1760 0E97                       l1752 0E75  
                     l1744 0E62                       l1736 0E52                       l1728 0E3F  
                     l1592 0C8A                       l1920 0161                       l1912 0110  
                     l1904 009E                       l1680 0DA7                       l1576 07E3  
                     l1568 07C4                       l1656 0627                       l1496 0D46  
                     l1658 0C08                       l1666 0B9D                       l1850 0FED  
                     l1842 0FD6                       l1834 0FA6                       l1826 0F76  
                     l1818 0F56                       l1770 0EAE                       l1746 0E67  
                     l1754 0E77                       l1738 0E57                       l1594 0C99  
                     l1586 0C7D                       l1930 01E1                       l1922 017E  
                     l1914 012C                       l1906 00AB                       l1690 0DD3  
                     l1682 0DB4                       l1578 07E4                       l1498 0D49  
                     l1852 0FEF                       l1844 0FDA                       l1828 0F7B  
                     l1836 0FAC                       l1780 0EDA                       l1772 0EC0  
                     l1756 0E87                       l1764 0EA0                       l1748 0E6C  
                     l1596 0C9E                       l1588 0C7F                       l1940 0299  
                     l1932 020E                       l1924 018E                       l1916 0148  
                     l1908 00C8                       l1860 0028                       l1692 0DDB  
                     l1846 0FE2                       l1838 0FB9                       l1782 0EDF  
                     l1790 0EFF                       l1774 0EC8                       l1766 0EA5  
                     l1758 0E93                       l1950 02BE                       l1942 02A2  
                     l1934 021E                       l1926 01AB                       l1918 0151  
                     l1870 003D                       l1862 002E                       l1694 0DDD  
                     l1686 0DBD                       l1848 0FE9                       l1792 0F11  
                     l1784 0EF1                       l1776 0ED0                       l1960 02D6  
                     l1952 02C7                       l1944 02B0                       l1936 024B  
                     l1928 01C4                       l1880 005A                       l1872 0045  
                     l1864 0032                       l1696 0DE1                       l1688 0DD2  
                     l1794 0F12                       l1786 0EF5                       l1778 0ED8  
                     l1970 0305                       l1962 02EA                       l1946 02B9  
                     l1954 02CD                       l1938 0271                       l1890 0071  
                     l1882 005E                       l1874 0047                       l1866 0033  
                     l1858 0021                       l1796 0F20                       l1788 0EF6  
                     l1980 0340                       l1972 0309                       l1956 02D1  
                     l1948 02BD                       l1892 0073                       l1884 005F  
                     l1876 004F                       l1868 0038                       l1798 0F24  
                     l1990 036D                       l1982 034F                       l1974 0322  
                     l1966 02F2                       l1958 02D2                       l1894 007B  
                     l1886 0064                       l1878 0054                       l1992 036E  
                     l1984 0359                       l1968 02F7                       l1976 0328  
                     l1896 0080                       l1888 0069                       l1994 0379  
                     l1986 035B                       l1978 0335                       l1898 0085  
                     l1988 0369                       l1998 06F7                       _ADIE 0466  
                     _ADIF 0066                       ?_isr 0070                       _ADON 00F8  
                     STR_1 0806                       STR_2 083E                       STR_3 083B  
                     STR_4 0818                       STR_5 083E                       STR_6 0837  
                     STR_7 083E                       STR_8 083B                       STR_9 0825  
                     u2001 0200                       u2002 0207                       u2011 022D  
                     u2003 020E                       u2100 02D1                       u2020 0257  
                     u2012 0234                       u2101 02D0                       u2013 023B  
                     u2110 02D6                       u1310 07CC                       u1230 0C32  
                     u2111 02D5                       u2031 0263                       u1311 07CB  
                     u1231 0C31                       u1400 0C17                       u2120 02EA  
                     u2040 027F                       u2032 026A                       u2200 06FC  
                     u1401 0C16                       u2121 02E9                       u2033 0271  
                     u2025 0252                       u2201 06FB                       u1305 07BE  
                     u1410 0C29                       u2130 02F1                       u2210 0700  
                     u1330 07DD                       u1411 0C28                       u2131 02F0  
                     u2051 028B                       u2211 06FF                       u1331 07DC  
                     u1420 0BA5                       u2140 02F7                       u2052 0292  
                     u1500 0E01                       u2300 077D                       u2220 0720  
                     u1260 0C4C                       u1421 0BA4                       u2141 02F6  
                     u2053 0299                       u2045 027A                       u1501 0E00  
                     u2301 077C                       u2221 071F                       u1325 07CD  
                     u1261 0C4B                       u1245 0C39                       u2150 0309  
                     u2310 0792                       u1270 0BDA                       u1350 07F1  
                     u2151 0308                       u1271 0BD9                       u1351 07F0  
                     u1335 07D9                       u1255 0C40                       u1600 0E87  
                     u1360 0C8A                       u2160 0318                       u2080 02BD  
                     u1520 0E12                       u1440 0DB4                       u2320 07A2  
                     u2240 0741                       u1280 0BE7                       u2400 05F7  
                     u1601 0E86                       u1361 0C89                       u2081 02BC  
                     u2065 029B                       u1521 0E11                       u1441 0DB3  
                     u2321 07A1                       u2241 0740                       u1281 0BE6  
                     u1345 07E5                       u2401 05F6                       u1610 0EA5  
                     u2170 0335                       u1530 0E17                       u1450 0DCB  
                     u2330 07A6                       u1290 07BA                       u2410 060C  
                     u1611 0EA4                       u2171 0334                       u2075 02B2  
                     u1531 0E16                       u1515 0E04                       u2331 07A5  
                     u2315 078D                       u2235 0733                       u1291 07B9  
                     u2411 060B                       u1620 0EDF                       u1540 0E34  
                     u1380 0C9E                       u2180 034F                       u1460 0DE1  
                     u2260 0763                       u2340 0455                       u1621 0EDE  
                     u1541 0E33                       u1381 0C9D                       u2181 034E  
                     u2165 0313                       u1461 0DE0                       u2261 0762  
                     u2341 0454                       u1390 0C79                       u1710 0F41  
                     u1550 0E3A                       u2190 036D                       u1470 0DE8  
                     u2350 045B                       u1391 0C78                       u1711 0F40  
                     u1551 0E39                       u1375 0C91                       u2191 036C  
                     u2175 0331                       u2095 02C0                       u1471 0DE7  
                     u1455 0DC6                       u2255 0755                       u2351 045A  
                     u1800 0FB9                       u1560 0E3F                       u2280 0773  
                     u2360 0468                       u1801 0FB8                       u1705 0F36  
                     u1561 0E3E                       u2185 034B                       u2281 0772  
                     u2361 0467                       u1810 0FD6                       u1730 0F55  
                     u1650 0EF5                       u1570 0E61                       u1490 0DFA  
                     u2290 0779                       u2370 0478                       u1811 0FD5  
                     u1731 0F54                       u1651 0EF4                       u1635 0EE1  
                     u1571 0E60                       u1491 0DF9                       u2291 0778  
                     u2275 0768                       u2507 0BB3                       u2371 0477  
                     u1820 0FED                       u1740 0F5A                       u1580 0E67  
                     u1900 0085                       u2380 0482                       u2517 0BF4  
                     u1821 0FEC                       u1805 0FB5                       u1741 0F59  
                     u1725 0F44                       u1645 0EEA                       u1581 0E66  
                     u1901 0084                       u1485 0DEA                       u2381 0481  
                     u1750 0F6E                       u1670 0F11                       u1590 0E6C  
                     u1830 0032                       u2390 05B2                       u2527 0C00  
                     u1815 0FD2                       u1751 0F6D                       u1671 0F10  
                     u1591 0E6B                       u1911 00D6                       u1831 0031  
                     u2391 05B1                       u2375 0474                       u1760 0F75  
                     u1680 0F2A                       u1912 00DD                       u1840 0038  
                     u1761 0F74                       u1681 0F29                       u1665 0EF8  
                     u1921 00F2                       u1913 00E4                       u1841 0037  
                     u2385 047E                       u2457 0394                       u1770 0F7B  
                     u1690 0F32                       u1922 00F9                       u1850 003D  
                     u1771 0F7A                       u1691 0F31                       u1675 0F0D  
                     u1931 011E                       u1923 0100                       u1851 003C  
                     u2467 0D4F                       u1780 0F8D                       u1932 0125  
                     u1860 005E                       u1781 0F8C                       u1941 013A  
                     u1933 012C                       u1861 005D                       u2477 0D60  
                     u1790 0F9C                       u1942 0141                       u1870 0064  
                     u1943 0148                       u1871 0063                       u2487 0D6F  
                     u1880 0069                       u1961 0170                       u1881 0068  
                     u2497 0DA2                       u1962 0177                       u1890 0080  
                     u1795 0F97                       u1971 019D                       u1963 017E  
                     u1955 014A                       u1891 007F                       _PEIE 005E  
                     u1972 01A4                       u1973 01AB                       u1991 01D3  
                     u1992 01DA                       u1993 01E1                       u1985 01AD  
                     _RCIF 0065          ?_Lcd_Write_String 0070                       _main 0382  
                     btemp 007E                       start 000C         ??_Lcd_Write_String 0023  
          ___fldiv@new_exp 005A            __end_of_Lcd_Cmd 0BBC          ___bmul@multiplier 0023  
  __end_of_UART_Write_Char 0BA6                      ??_isr 007B              ___fltol@sign1 006B  
                    ?_main 0070            __end_of___fldiv 1000                      STR_10 083E  
                    STR_11 0832                      STR_12 0816                      STR_13 0816  
                    _BRG16 0C3B            __end_of___flmul 0382            __end_of___fltol 0E23  
                    _ANSEL 0188            __end_of___lwdiv 07F6                      i1l138 0D3F  
                    i1l165 0CCD                      _RCREG 001A                      _SPBRG 0099  
                    _PORTA 0005                      _PORTB 0006                      _PORTC 0007  
                    _PORTD 0008                      _PORTE 0009                      _TRISA 0085  
                    _TRISB 0086                      _TRISC 0087                      _TRISD 0088  
                    _TRISE 0089                      _TXREG 0019                ?_UART_Write 0070  
       __size_of_UART_Init 0016                      _setup 0CCE                      pclath 000A  
                    status 0003                      wtemp0 007E           __end_of_Lcd_Init 0DA7  
          __initialization 000F               __end_of_main 0627                     ??_main 00B7  
                   _ADRESH 001E                     _ADRESL 009E                readAnalog@a 0075  
              readAnalog@b 0077                     ?_setup 0070                     _ANSELH 0189  
                   i1l2150 0D26                     i1l2142 0D05                     i1l2152 0D2F  
                   i1l2144 0D0B                     i1l2154 0D3A                     i1l2146 0D14  
                   i1l2156 0D3E                     i1l2148 0D1F                     i1l1670 0CA3  
                   i1l1672 0CB4                     i1l1674 0CC3                     i1l1676 0CC9  
                   i1l1668 0CA3                     u143_25 0CA8                     u242_20 0D0B  
                   u242_21 0D0A                     u243_20 0D14                     u243_21 0D13  
                   u244_20 0D2F                     u244_21 0D2E                  ??_Lcd_Cmd 0020  
                   _SPBRGH 009A    __size_of_Lcd_Write_Char 001C           __end_of___xxtofl 07B0  
        __end_of_UART_Init 0BD2                     ___bmul 0BD2           ?_UART_Write_Char 0070  
      __size_of_UART_Write 0025                     ___wmul 0C2A                  ??___fldiv 0050  
                ??___flmul 0036                  ??___fltol 0066                  ??___lwdiv 002A  
                   _divide 0627         __size_of__Umul8_16 0029                     saved_w 007E  
               _v1_compare 00A4                 _v2_compare 00A0               ___xxtofl@arg 002A  
             ___xxtofl@exp 0029               ___xxtofl@val 0020    __end_of__initialization 001D  
               ___fltol@f1 0062        ___bmul@multiplicand 0020             __pcstackCOMMON 0070  
            __end_of_setup 0D05   UART_Write_Char@character 0020                  ?_Lcd_Init 0070  
                  ??_setup 0025                 __pbssBANK0 006D                 __pbssBANK1 00A0  
        __end_of__Umul8_16 0CA3                 __pmaintext 0382                    ?___bmul 0020  
                  ?___wmul 0020                 __pintentry 0004                    ?_divide 002E  
__size_of_Lcd_Write_String 0029                  ?___xxtofl 0020               ??_UART_Write 0020  
               ??_Lcd_Init 0023                 __stringtab 0800             _Lcd_Write_Char 0BE9  
                  _Lcd_Cmd 0BA6                 _readAnalog 0CA3            __size_of___bmul 0017  
                  ___fldiv 0E23                    ___flmul 0021                    ___fltol 0DA7  
          __size_of___wmul 0027         __end_of_UART_Write 0C2A                    ___lwdiv 07B0  
          __size_of_divide 00CD                    __ptext1 0CCE                    __ptext2 0BBC  
                  __ptext3 0D46                    __ptext4 0BA6                    __ptext5 0627  
                  __ptext6 0C2A                    __ptext7 07B0                    __ptext8 0BD2  
                  __ptext9 06F4                    _counter 00A9               __size_of_isr 0041  
               ??___xxtofl 0024                    clrloop0 07F7     __end_of_Lcd_Write_Char 0C05  
     end_of_initialization 001D                  _RCSTAbits 0018                  _UART_Init 0BBC  
           UART_Write@word 0021              ___xxtofl@sign 0028                ___fldiv@grs 005C  
              ___fldiv@rem 0055                 divide@cent 0031                 divide@unit 0033  
          ?_Lcd_Write_Char 0070          Lcd_Write_String@a 0025          Lcd_Write_String@i 0023  
              ___flmul@grs 003C                  _TXSTAbits 0098                ?_readAnalog 0070  
           __end_of___bmul 0BE9             __end_of___wmul 0C51           _Lcd_Write_String 0C51  
               ?_UART_Init 0070             __end_of_divide 06F4   __size_of_UART_Write_Char 000C  
      start_initialization 000F                __end_of_isr 0D46          __size_of_Lcd_Init 0061  
         readAnalog@result 0079                   ??___bmul 0021                   ??___wmul 0024  
                __Umul8_16 0C7A                   ??_divide 0034            Lcd_Write_Char@a 0022  
                ___fldiv@a 0048                  ___fldiv@b 004C                  ___flmul@a 0032  
                ___flmul@b 002E                  ___latbits 0002              __pcstackBANK0 0020  
            __pcstackBANK1 00B7          __size_of___xxtofl 00BC        __size_of_readAnalog 002B  
                 ?_Lcd_Cmd 0070           ___lwdiv@dividend 0028                   ?___fldiv 0048  
          _counter_compare 00A8                   ?___flmul 002E                   ?___fltol 0062  
               ?__Umul8_16 0020                   ?___lwdiv 0026                ??_UART_Init 0020  
                __pstrings 0800           ___lwdiv@quotient 002B          ??_UART_Write_Char 0020  
           __size_of_setup 0037          interrupt_function 0004             ___wmul@product 0024  
                clear_ram0 07F6                   Lcd_Cmd@a 0022                 _ADCON0bits 001F  
                divide@dec 0032                __stringbase 0805                  divide@mil 0030  
        ___wmul@multiplier 0020           ??_Lcd_Write_Char 0020                   _Lcd_Init 0D46  
 __end_of_Lcd_Write_String 0C7A           __size_of_Lcd_Cmd 0016               ??_readAnalog 0072  
              ??__Umul8_16 0022           __size_of___fldiv 01DD           __size_of___flmul 0361  
         __size_of___fltol 007C           __size_of___lwdiv 0046         __end_of__stringtab 0806  
                 ___xxtofl 06F4            ___lwdiv@divisor 0026            ___lwdiv@counter 002D  
                 __ptext10 0DA7                   __ptext11 0021                   __ptext12 0C7A  
                 __ptext13 0E23                   __ptext14 0B9A                   __ptext15 0C05  
                 __ptext16 0C51                   __ptext17 0BE9                   __ptext18 0D05  
                 __ptext19 0CA3         __end_of_readAnalog 0CCE                   _read_an1 00AC  
                 _read_an2 00AA              __size_of_main 02A5                   intlevel1 0000  
                stringcode 0800            _UART_Write_Char 0B9A     __Umul8_16@multiplicand 0020  
                 stringdir 0800                   stringtab 0800                 _UART_Write 0C05  
     __Umul8_16@multiplier 0028          __Umul8_16@product 0024  
